ccopy_reg
_reconstructor
p0
(cdmp.srv._LearnDMPFromDemo
LearnDMPFromDemoResponse
p1
c__builtin__
object
p2
Ntp3
Rp4
(lp5
(lp6
g0
(cdmp.msg._DMPData
DMPData
p7
g2
Ntp8
Rp9
(lp10
F100.0
aF20.0
a(ta(F0.0
F0.0014880952380952382
F0.0029761904761904765
F0.004464285714285714
F0.005952380952380953
F0.007440476190476191
F0.008928571428571428
F0.010416666666666668
F0.011904761904761906
F0.013392857142857142
F0.014880952380952382
F0.01636904761904762
F0.017857142857142856
F0.019345238095238096
F0.020833333333333336
F0.022321428571428572
F0.02380952380952381
F0.02529761904761905
F0.026785714285714284
F0.028273809523809524
F0.029761904761904764
F0.03125
F0.03273809523809524
F0.03422619047619048
F0.03571428571428571
F0.03720238095238095
F0.03869047619047619
F0.04017857142857143
F0.04166666666666667
F0.043154761904761904
F0.044642857142857144
F0.046130952380952384
F0.04761904761904762
F0.04910714285714286
F0.0505952380952381
F0.05208333333333334
F0.05357142857142857
F0.05505952380952381
F0.05654761904761905
F0.05803571428571429
F0.05952380952380953
F0.06101190476190477
F0.0625
F0.06398809523809523
F0.06547619047619048
F0.06696428571428571
F0.06845238095238096
F0.06994047619047619
F0.07142857142857142
F0.07291666666666667
F0.0744047619047619
F0.07589285714285715
F0.07738095238095238
F0.07886904761904763
F0.08035714285714286
F0.08184523809523811
F0.08333333333333334
F0.08482142857142859
F0.08630952380952381
F0.08779761904761904
F0.08928571428571429
F0.09077380952380952
F0.09226190476190477
F0.09375
F0.09523809523809525
F0.09672619047619048
F0.09821428571428573
F0.09970238095238096
F0.1011904761904762
F0.10267857142857144
F0.10416666666666669
F0.1056547619047619
F0.10714285714285714
F0.10863095238095238
F0.11011904761904762
F0.11160714285714286
F0.1130952380952381
F0.11458333333333334
F0.11607142857142858
F0.11755952380952382
F0.11904761904761905
F0.1205357142857143
F0.12202380952380953
F0.12351190476190478
F0.125
F0.12648809523809523
F0.12797619047619047
F0.12946428571428573
F0.13095238095238096
F0.1324404761904762
F0.13392857142857142
F0.13541666666666669
F0.13690476190476192
F0.13839285714285715
F0.13988095238095238
F0.14136904761904764
F0.14285714285714285
F0.1443452380952381
F0.14583333333333334
F0.14732142857142858
F0.1488095238095238
F0.15029761904761904
F0.1517857142857143
F0.15327380952380953
F0.15476190476190477
F0.15625
F0.15773809523809526
F0.1592261904761905
F0.16071428571428573
F0.16220238095238096
F0.16369047619047622
F0.16517857142857145
F0.16666666666666669
F0.16815476190476192
F0.16964285714285718
F0.1711309523809524
F0.17261904761904762
F0.17410714285714285
F0.17559523809523808
F0.17708333333333334
F0.17857142857142858
F0.1800595238095238
F0.18154761904761904
F0.1830357142857143
F0.18452380952380953
F0.18601190476190477
F0.1875
F0.18898809523809526
F0.1904761904761905
F0.19196428571428573
F0.19345238095238096
F0.1949404761904762
F0.19642857142857145
F0.19791666666666669
F0.19940476190476192
F0.20089285714285715
F0.2023809523809524
F0.20386904761904764
F0.20535714285714288
F0.2068452380952381
F0.20833333333333337
F0.20982142857142858
F0.2113095238095238
F0.21279761904761904
F0.21428571428571427
F0.21577380952380953
F0.21726190476190477
F0.21875
F0.22023809523809523
F0.2217261904761905
F0.22321428571428573
F0.22470238095238096
F0.2261904761904762
F0.22767857142857145
F0.22916666666666669
F0.23065476190476192
F0.23214285714285715
F0.2336309523809524
F0.23511904761904764
F0.23660714285714288
F0.2380952380952381
F0.23958333333333337
F0.2410714285714286
F0.24255952380952384
F0.24404761904761907
F0.2455357142857143
F0.24702380952380956
F0.24851190476190477
F0.25
F0.25148809523809523
F0.25297619047619047
F0.2544642857142857
F0.25595238095238093
F0.2574404761904762
F0.25892857142857145
F0.2604166666666667
F0.2619047619047619
F0.26339285714285715
F0.2648809523809524
F0.2663690476190476
F0.26785714285714285
F0.26934523809523814
F0.27083333333333337
F0.2723214285714286
F0.27380952380952384
F0.27529761904761907
F0.2767857142857143
F0.27827380952380953
F0.27976190476190477
F0.28125000000000006
F0.2827380952380953
F0.2842261904761905
F0.2857142857142857
F0.28720238095238093
F0.2886904761904762
F0.29017857142857145
F0.2916666666666667
F0.2931547619047619
F0.29464285714285715
F0.2961309523809524
F0.2976190476190476
F0.2991071428571429
F0.3005952380952381
F0.30208333333333337
F0.3035714285714286
F0.3050595238095238
F0.30654761904761907
F0.30803571428571425
F0.30952380952380953
F0.31101190476190477
F0.3125
F0.31398809523809523
F0.3154761904761905
F0.3169642857142857
F0.318452380952381
F0.31994047619047616
F0.32142857142857145
F0.3229166666666667
F0.3244047619047619
F0.32589285714285715
F0.32738095238095244
F0.3288690476190476
F0.3303571428571429
F0.3318452380952381
F0.33333333333333337
F0.3348214285714286
F0.33630952380952384
F0.33779761904761907
F0.33928571428571436
F0.34077380952380953
F0.3422619047619048
F0.34375
F0.34523809523809523
F0.3467261904761905
F0.3482142857142857
F0.349702380952381
F0.35119047619047616
F0.35267857142857145
F0.3541666666666667
F0.3556547619047619
F0.35714285714285715
F0.35863095238095244
F0.3601190476190476
F0.3616071428571429
F0.3630952380952381
F0.36458333333333337
F0.3660714285714286
F0.36755952380952384
F0.36904761904761907
F0.37053571428571436
F0.37202380952380953
F0.3735119047619048
F0.375
F0.3764880952380953
F0.3779761904761905
F0.37946428571428575
F0.380952380952381
F0.38244047619047616
F0.38392857142857145
F0.3854166666666667
F0.3869047619047619
F0.38839285714285715
F0.3898809523809524
F0.3913690476190476
F0.3928571428571429
F0.3943452380952381
F0.39583333333333337
F0.3973214285714286
F0.39880952380952384
F0.40029761904761907
F0.4017857142857143
F0.40327380952380953
F0.4047619047619048
F0.40625
F0.4077380952380953
F0.40922619047619047
F0.41071428571428575
F0.412202380952381
F0.4136904761904762
F0.41517857142857145
F0.41666666666666674
F0.4181547619047619
F0.41964285714285715
F0.4211309523809524
F0.4226190476190476
F0.4241071428571429
F0.4255952380952381
F0.42708333333333337
F0.42857142857142855
F0.43005952380952384
F0.43154761904761907
F0.4330357142857143
F0.43452380952380953
F0.4360119047619048
F0.4375
F0.4389880952380953
F0.44047619047619047
F0.44196428571428575
F0.443452380952381
F0.4449404761904762
F0.44642857142857145
F0.44791666666666674
F0.4494047619047619
F0.4508928571428572
F0.4523809523809524
F0.45386904761904767
F0.4553571428571429
F0.45684523809523814
F0.45833333333333337
F0.45982142857142855
F0.46130952380952384
F0.46279761904761907
F0.4642857142857143
F0.46577380952380953
F0.4672619047619048
F0.46875
F0.4702380952380953
F0.47172619047619047
F0.47321428571428575
F0.474702380952381
F0.4761904761904762
F0.47767857142857145
F0.47916666666666674
F0.4806547619047619
F0.4821428571428572
F0.4836309523809524
F0.48511904761904767
F0.4866071428571429
F0.48809523809523814
F0.48958333333333337
F0.4910714285714286
F0.49255952380952384
F0.4940476190476191
F0.4955357142857143
F0.49702380952380953
F0.49851190476190477
F0.5
F0.5014880952380952
F0.5029761904761905
F0.5044642857142857
F0.5059523809523809
F0.5074404761904763
F0.5089285714285714
F0.5104166666666667
F0.5119047619047619
F0.5133928571428572
F0.5148809523809524
F0.5163690476190477
F0.5178571428571429
F0.5193452380952381
F0.5208333333333334
F0.5223214285714286
F0.5238095238095238
F0.5252976190476191
F0.5267857142857143
F0.5282738095238095
F0.5297619047619048
F0.5312500000000001
F0.5327380952380952
F0.5342261904761905
F0.5357142857142857
F0.5372023809523809
F0.5386904761904763
F0.5401785714285714
F0.5416666666666667
F0.5431547619047619
F0.5446428571428572
F0.5461309523809524
F0.5476190476190477
F0.5491071428571429
F0.5505952380952381
F0.5520833333333334
F0.5535714285714286
F0.5550595238095238
F0.5565476190476191
F0.5580357142857143
F0.5595238095238095
F0.5610119047619048
F0.5625000000000001
F0.5639880952380952
F0.5654761904761906
F0.5669642857142857
F0.568452380952381
F0.5699404761904763
F0.5714285714285714
F0.5729166666666667
F0.5744047619047619
F0.5758928571428572
F0.5773809523809524
F0.5788690476190477
F0.5803571428571429
F0.5818452380952381
F0.5833333333333334
F0.5848214285714286
F0.5863095238095238
F0.5877976190476191
F0.5892857142857143
F0.5907738095238095
F0.5922619047619048
F0.59375
F0.5952380952380952
F0.5967261904761905
F0.5982142857142858
F0.599702380952381
F0.6011904761904762
F0.6026785714285714
F0.6041666666666667
F0.605654761904762
F0.6071428571428572
F0.6086309523809523
F0.6101190476190476
F0.6116071428571429
F0.6130952380952381
F0.6145833333333334
F0.6160714285714285
F0.6175595238095238
F0.6190476190476191
F0.6205357142857143
F0.6220238095238095
F0.6235119047619049
F0.625
F0.6264880952380952
F0.6279761904761905
F0.6294642857142858
F0.630952380952381
F0.6324404761904762
F0.6339285714285714
F0.6354166666666667
F0.636904761904762
F0.6383928571428572
F0.6398809523809523
F0.6413690476190477
F0.6428571428571429
F0.6443452380952381
F0.6458333333333334
F0.6473214285714287
F0.6488095238095238
F0.6502976190476191
F0.6517857142857143
F0.6532738095238095
F0.6547619047619049
F0.65625
F0.6577380952380952
F0.6592261904761905
F0.6607142857142858
F0.662202380952381
F0.6636904761904762
F0.6651785714285714
F0.6666666666666667
F0.668154761904762
F0.6696428571428572
F0.6711309523809523
F0.6726190476190477
F0.6741071428571429
F0.6755952380952381
F0.6770833333333334
F0.6785714285714287
F0.6800595238095238
F0.6815476190476191
F0.6830357142857143
F0.6845238095238096
F0.6860119047619049
F0.6875
F0.6889880952380952
F0.6904761904761905
F0.6919642857142858
F0.693452380952381
F0.6949404761904762
F0.6964285714285714
F0.6979166666666667
F0.699404761904762
F0.7008928571428572
F0.7023809523809523
F0.7038690476190477
F0.7053571428571429
F0.7068452380952381
F0.7083333333333334
F0.7098214285714287
F0.7113095238095238
F0.7127976190476191
F0.7142857142857143
F0.7157738095238096
F0.7172619047619049
F0.71875
F0.7202380952380952
F0.7217261904761906
F0.7232142857142858
F0.724702380952381
F0.7261904761904762
F0.7276785714285714
F0.7291666666666667
F0.730654761904762
F0.7321428571428572
F0.7336309523809523
F0.7351190476190477
F0.7366071428571429
F0.7380952380952381
F0.7395833333333334
F0.7410714285714287
F0.7425595238095238
F0.7440476190476191
F0.7455357142857143
F0.7470238095238096
F0.7485119047619049
F0.75
F0.7514880952380952
F0.7529761904761906
F0.7544642857142858
F0.755952380952381
F0.7574404761904762
F0.7589285714285715
F0.7604166666666667
F0.761904761904762
F0.7633928571428572
F0.7648809523809523
F0.7663690476190477
F0.7678571428571429
F0.7693452380952381
F0.7708333333333334
F0.7723214285714286
F0.7738095238095238
F0.7752976190476191
F0.7767857142857143
F0.7782738095238096
F0.7797619047619048
F0.78125
F0.7827380952380952
F0.7842261904761906
F0.7857142857142858
F0.787202380952381
F0.7886904761904762
F0.7901785714285715
F0.7916666666666667
F0.793154761904762
F0.7946428571428572
F0.7961309523809524
F0.7976190476190477
F0.7991071428571429
F0.8005952380952381
F0.8020833333333334
F0.8035714285714286
F0.8050595238095238
F0.8065476190476191
F0.8080357142857143
F0.8095238095238096
F0.8110119047619048
F0.8125
F0.8139880952380952
F0.8154761904761906
F0.8169642857142858
F0.8184523809523809
F0.8199404761904762
F0.8214285714285715
F0.8229166666666667
F0.824404761904762
F0.8258928571428571
F0.8273809523809524
F0.8288690476190477
F0.8303571428571429
F0.8318452380952381
F0.8333333333333335
F0.8348214285714286
F0.8363095238095238
F0.8377976190476191
F0.8392857142857143
F0.8407738095238096
F0.8422619047619048
F0.84375
F0.8452380952380952
F0.8467261904761906
F0.8482142857142858
F0.8497023809523809
F0.8511904761904762
F0.8526785714285715
F0.8541666666666667
F0.855654761904762
F0.8571428571428571
F0.8586309523809524
F0.8601190476190477
F0.8616071428571429
F0.8630952380952381
F0.8645833333333335
F0.8660714285714286
F0.8675595238095238
F0.8690476190476191
F0.8705357142857144
F0.8720238095238096
F0.8735119047619048
F0.875
F0.8764880952380952
F0.8779761904761906
F0.8794642857142858
F0.8809523809523809
F0.8824404761904762
F0.8839285714285715
F0.8854166666666667
F0.886904761904762
F0.8883928571428571
F0.8898809523809524
F0.8913690476190477
F0.8928571428571429
F0.8943452380952381
F0.8958333333333335
F0.8973214285714286
F0.8988095238095238
F0.9002976190476191
F0.9017857142857144
F0.9032738095238096
F0.9047619047619048
F0.90625
F0.9077380952380953
F0.9092261904761906
F0.9107142857142858
F0.9122023809523809
F0.9136904761904763
F0.9151785714285715
F0.9166666666666667
F0.918154761904762
F0.9196428571428571
F0.9211309523809524
F0.9226190476190477
F0.9241071428571429
F0.9255952380952381
F0.9270833333333335
F0.9285714285714286
F0.9300595238095238
F0.9315476190476191
F0.9330357142857144
F0.9345238095238096
F0.9360119047619048
F0.9375
F0.9389880952380953
F0.9404761904761906
F0.9419642857142858
F0.9434523809523809
F0.9449404761904763
F0.9464285714285715
F0.9479166666666667
F0.949404761904762
F0.9508928571428573
F0.9523809523809524
F0.9538690476190477
F0.9553571428571429
F0.9568452380952381
F0.9583333333333335
F0.9598214285714286
F0.9613095238095238
F0.9627976190476191
F0.9642857142857144
F0.9657738095238096
F0.9672619047619048
F0.96875
F0.9702380952380953
F0.9717261904761906
F0.9732142857142858
F0.9747023809523809
F0.9761904761904763
F0.9776785714285715
F0.9791666666666667
F0.980654761904762
F0.9821428571428572
F0.9836309523809524
F0.9851190476190477
F0.9866071428571429
F0.9880952380952382
F0.9895833333333334
F0.9910714285714286
F0.9925595238095238
F0.9940476190476191
F0.9955357142857144
F0.9970238095238095
F0.9985119047619048
F1.0
tp11
a(F0.0
F0.007721405450264955
F0.01549590688947124
F-3.5090881225038273
F5.1450005779669015
F-3.2880508154110384
F5.2002872110000595
F-3.2086818092910065
F-0.0807787454812571
F1.8996668297407593
F-5.319951373652618
F1.6255910658170707
F5.7009805972780985
F-3.321775837007781
F-0.03181667353238457
F-1.7657466956384242
F5.666822858431436
F-7.0785244354803165
F3.4731018790241475
F-1.566051940846857
F5.772903832351007
F-5.179996648894791
F-0.2199167289807896
F7.935105502797751
F-6.9465517296787045
F-0.3755655996033609
F4.131650456375703
F-3.4649931236105522
F3.9581140566955577
F-3.442622363179945
F-0.15559868544342115
F0.20483857591047713
F2.3173371210176654
F2.4719532430215514
F-3.63215695434855
F6.199899774011346
F0.9529977319902944
F-5.9239035464713785
F-2.336103338196652
F8.530351255006648
F-5.197806493291784
F1.8795733368930492
F2.745040215618865
F0.6423722246093242
F-12.745097322172752
F16.528565849013212
F-2.0854149329866822
F-4.424301413789789
F4.365368965624598
F-1.241746050874403
F-4.320380522649758
F6.685213119658102
F-1.0090434376857877
F0.24263102295648648
F0.5022891044386443
F0.5134644842859801
F5.19633939580854
F-10.546771840813665
F10.817039658621688
F-2.667466232090125
F-4.75268954935097
F6.996799551255703
F1.593002378252687
F0.6696014505186593
F-6.608657396751966
F1.977164851337444
F8.276591693224198
F-5.607589120445938
F4.4940413909879195
F-3.5117736442155154
F-0.09809202828873247
F8.214216528539481
F-5.6771019833676135
F2.110647941904063
F1.1103070641743424
F3.3328078731611286
F-3.9352725583250265
F7.615892210572087
F-2.872606556793998
F-0.10329302256321245
F3.468141105254457
F-6.609591795246078
F4.670386711698626
F4.447854052693102
F4.141553065582344
F-6.663285311303907
F7.6328196144086755
F-2.9618560456138
F-2.779206634359351
F3.1169542441323688
F4.246680664228454
F-1.2200885418511476
F0.47541353057558466
F3.818687761551415
F-1.169860265676407
F6.194249809635674
F2.346794318247454
F-10.28838624792579
F7.348274515064656
F-0.011432267227388907
F9.325195304371832
F-5.634066252849542
F-0.6498439660962599
F7.125936305682522
F5.590919546596525
F-9.88713023986452
F4.64384250988606
F-3.51388527731972
F9.038801932089786
F-5.773627208188614
F5.363242312500192
F8.978983295111306
F-0.15676596886704508
F-17.79743258680549
F21.55746221378952
F7.808996984369269
F-20.55458243270562
F8.739471069448054
F7.734310790606569
F5.697769702256522
F-7.197498010775211
F-0.8741871271897127
F8.03281061980626
F-3.1762317159866575
F6.474780637189584
F3.4866409237089533
F-8.235367834589008
F5.618470758814248
F0.12798006920215033
F17.771187682231197
F-17.27696223476082
F12.312316106796795
F-3.724847012134942
F2.4103866329485544
F6.304062487959008
F-0.5666812608713906
F-2.577637761422002
F7.821876674610437
F-6.451824770745664
F2.1756748910062145
F10.067476799316312
F-3.017739585735329
F-0.1904672605663519
F5.540621042272394
F-11.419690335582503
F15.47234400333356
F4.187150921518116
F-10.197586831909437
F9.556581534988128
F-1.846595398031693
F-4.1301044009936545
F11.85381321134626
F5.9349235563112215
F-9.262586592167901
F5.931499265398598
F8.50351904803587
F3.61730385339304
F-9.373824384562626
F2.0217804044379775
F3.3882670800194465
F10.057535155989893
F-10.663833221830192
F4.296779586762331
F5.14862769551328
F13.871574705308058
F-8.829431428354894
F8.521562557972844
F-5.380552418353046
F-2.238137370054969
F6.272252900545018
F3.9167093451567223
F2.3352576487757273
F-5.9577830957772
F3.0868575328575867
F-0.3245473330658356
F0.5226021141733143
F6.406514562065913
F-17.584873365057387
F10.650628149829585
F0.0281839383206125
F11.78838147544289
F2.9946816233973124
F-8.446940863159698
F3.0038298225375115
F-0.531687548823956
F4.546423172613425
F-5.258698694924916
F11.97584574272175
F-10.291398919405667
F-10.88835434607233
F18.70847542233864
F0.3598260143587113
F-7.227182034802655
F0.05136812530038601
F10.941498111687839
F1.3685265119391856
F-4.903964902582022
F-0.1965349422992522
F-2.951199726658248
F13.306466928257453
F-19.80431019574493
F-2.6705711452859493
F10.197718299612431
F4.203870160386971
F-8.414327027416778
F11.377114102164043
F-11.614352450882082
F12.552701725229799
F-19.1533866637682
F15.685016267931333
F-7.579215596704053
F-7.793416741746245
F13.207097953479153
F1.9601120088413644
F-17.310451590406572
F8.773145301364478
F-12.288104780957525
F6.047662768920539
F18.88089739819938
F-14.758832354687522
F-4.06523237508023
F13.320137440038433
F-4.639070166646891
F-14.961129301354182
F15.308815595561843
F1.8645753699211862
F6.970725919417559
F-5.058545067932034
F26.57702367641375
F-23.76551110888721
F-11.565092842924342
F10.942196777522499
F3.581857190018923
F7.101469292132556
F-1.6540867186258856
F-2.734371026972204
F6.591959804543193
F4.6615766295116785
F-5.19757432951793
F14.557398294639581
F-11.104913265585184
F-2.1380393085199505
F13.771957781364653
F5.366871230290185
F-4.97249714903541
F-3.1401454961761774
F6.89620886785344
F-12.645895440327857
F19.27585764789796
F-3.777084074807619
F4.041152362141351
F12.472900121361084
F-16.78752581006241
F-4.576133113844953
F17.165142164850582
F2.5041864840287795
F-21.555534997996336
F1.5547798957197643
F21.068874490655787
F-8.716828403770638
F12.917449526842685
F-7.100034193973115
F-9.94476764342387
F18.136602742007845
F-2.797782735223296
F-1.5314387377463472
F-0.9644235157023571
F3.4441243403314523
F17.747702962778146
F-8.925483769985341
F-5.823541597261881
F18.970011907662162
F10.89515465205764
F-24.705045374985993
F-12.148911716882118
F31.969761588575423
F-12.2666901712822
F-2.5915414733745115
F15.588397293038888
F0.6592494715744601
F-5.280311535403417
F3.362088202042394
F-14.318454541659264
F26.046208795370468
F-14.91991438236713
F-16.605051449051906
F24.80412479345257
F7.100739741863897
F-20.705368937377063
F-9.326427808644258
F20.686508951099036
F-16.321148263023822
F-0.7414020061503077
F10.33368590127032
F-5.821829348053452
F8.08771446975801
F-15.004873891908767
F3.65452796139556
F11.246666730184794
F-4.901003035350756
F-0.34003873708621674
F0.3760694461086222
F-5.833552689921901
F-0.28300973482678043
F-1.239944136538035
F0.9295511248074981
F-7.8815042154555055
F9.370377008621691
F4.5527611884235615
F-5.418682216740857
F-17.051611324278202
F-5.797709024197572
F45.366978139574975
F-2.3771811680742334
F-60.321393603766936
F-8.18543310082716
F29.39801353891538
F-0.4834315714199563
F7.366949846667699
F6.641057434067263
F-17.206327386593998
F8.059584662486127
F-25.416546910720303
F0.43228769293829206
F6.063125689131886
F-10.547615928918871
F-1.585141350984337
F-2.0628891086632763
F6.864890258686181
F-26.120304801245357
F-3.0376496725373814
F14.97269807380165
F7.6920164123665025
F-28.322740987401215
F-11.9812651151469
F18.227187003678992
F-4.307355020065628
F-6.007589903712533
F-16.984702723189564
F14.123359776665785
F-18.397548199991427
F-18.65406216499124
F29.526152896862072
F-22.526225268785158
F-4.501859433716903
F6.132728353792534
F-20.688520924740025
F-16.152713647467014
F17.915555523537822
F-4.458473651891155
F-15.501329164009322
F13.836013309447894
F-6.92238722051915
F-28.968241407366996
F33.672833344014975
F-8.57736536383874
F-28.231034931238568
F-3.52994609177772
F-14.209106126493701
F13.067875480145343
F-11.452662027248675
F-19.94193768280051
F7.874047059457009
F-7.7934355224260985
F6.748333107454516
F-13.616733750084865
F9.878878686500055
F1.7090295354232528
F-20.746541810110717
F19.94047395371518
F-25.920548474156462
F-31.614568845697583
F3.759675381305192
F6.521299157712485
F-16.67466225626291
F-17.39659779403849
F11.415182468714068
F9.25925226698009
F-24.800362304349118
F-32.13847056203133
F2.2958619895305006
F8.541547119520402
F-19.06463410967154
F35.19311074564119
F-49.61994785511889
F-42.314397178485116
F20.900698449104638
F-1.106808569509761
F41.360760063660805
F-14.324789385372544
F-76.16511155647214
F19.551276869690877
F-44.14242128252935
F-29.229128095675044
F117.65687388877478
F-32.63347877899059
F-88.06717682035197
F4.5535479663208545
F29.372253239619234
F79.2950961673969
F-97.31994320574135
F-16.659668898924995
F24.19827178087518
F-37.433715140100766
F-7.7795126110507065
F33.76567060624038
F-25.96123147799201
F-68.09908428129239
F1.4065747762116156
F130.72316873278672
F-90.93951778439987
F-80.81545977982412
F0.4883815890853822
F22.47153455247843
F42.582081931860166
F-24.157517630485984
F-55.02202394704212
F28.04345672643112
F10.174112880427332
F-27.48833843265879
F25.25578596461888
F-18.150598646020054
F-18.011104679746314
F-2.5366976181205687
F-31.620177352987472
F14.903705467913017
F15.610483057389487
F6.0210343380067854
F44.835720037601405
F-54.222693011714036
F-6.86714651054191
F56.222544121824384
F-53.29859407425489
F14.901216261049608
F14.024333367805424
F-42.14187322288012
F0.4232190956858011
F-8.078376705124104
F52.08291839139833
F16.1337163904375
F4.220180210190358
F-6.935072665329839
F-42.53620962156693
F41.095581252193035
F19.023326411902794
F-31.48348425826983
F5.902027833918365
F-33.14587542248967
F97.14388252352842
F-41.07557258379091
F-36.17727305212119
F100.75026876687248
F-28.424729402985836
F-58.34437419925061
F20.15306140597608
F50.16409023678912
F-16.42984141308499
F18.686024026843114
F72.69324326145184
F-100.06260847311526
F17.94884815864916
F100.76686149803778
F-55.153173410013814
F-61.25991520961829
F-3.7267838577340666
F35.018448522402
F89.04206597427292
F-39.452200451425895
F-27.999245139226918
F88.84717627247898
F-104.39130713259858
F98.20786293760597
F-63.0678485294865
F12.081712121511703
F31.926109053074477
F-13.32755820941624
F-46.44925683751306
F-21.615914342078696
F71.53318950928335
F62.215964097044214
F-101.17848111991397
F12.10386243668088
F21.20663270736629
F-62.345809925307094
F-19.31530521149794
F101.16586010349009
F-95.2419298537906
F34.720708063650164
F-1.1011383745726717
F12.430788094098036
F23.295301663261224
F-37.866998876201464
F-14.695690946091311
F-26.401816839507738
F64.32530390980405
F50.03995100151866
F-91.27128882799084
F-0.07582888643988794
F91.68751918164786
F-66.24589699864592
F26.799245624921845
F-54.59116189495637
F-30.315267864799498
F53.523329239982694
F15.457687860979515
F-86.64912604900887
F38.26718659330108
F102.35552950442748
F-100.3632359536978
F-46.11223385721451
F24.803792339283643
F61.38862229888833
F-78.28109403186457
F71.12225986161737
F38.34701566799841
F-173.3576372853167
F56.83129428556078
F87.01095365769551
F61.451517490397904
F-234.43813005273194
F163.64128250718085
F-58.00546288739294
F107.47470582359767
F-136.2479204720858
F48.31757798841851
F-1.0668569271866415
F-1.0664717280750726
F26.830839382435435
F35.443179617473405
F-209.04418890049922
F181.03348102761032
F-93.86985796060561
F65.58340902591256
F53.84822366377882
F-40.025349870793164
F-140.2896819246997
F108.26608017112378
F-1.0772602191282654
F12.164266904371665
F44.34588144234486
F-44.40154113436604
F30.80854929170744
F-91.19535485248849
F90.26308942969347
F-120.14543670845181
F22.846484623331634
F93.8501318075973
F-109.62268894611164
F59.29893296308793
F-1.073350616332096
F-1.0730100708589452
F-1.072667183636123
F-14.634833988383074
F-12.477590931697918
F193.86795057316127
F-301.2196490407584
F142.5350243908243
F40.3091017653914
F-122.81606619348926
F79.64663159940642
F40.877129048832884
F-150.80465262342477
F-22.824695658700886
F279.5790261178993
F-46.03330544527774
F-264.064919561918
F142.02912394157775
F-13.979284854674386
F-49.854166905124636
F147.23231726285334
F-38.15433449279001
F-175.44610959449645
F262.7677183891657
F-202.70289913077434
F114.33051838724664
F-196.89460418348483
F232.41524883524002
F-36.673564376513774
F-203.1173192827491
F213.07276575200936
F-150.20642521680537
F103.32023709457792
F130.5200479885012
F-236.80696269670818
F93.4004035147801
F48.74285900959467
F-198.80683657574494
F395.1761078493499
F-281.8572089607421
F-141.9686320455939
F228.1222603007607
F-250.3252012790882
F202.03870022505654
F158.41841296605784
F-191.5107273693807
F-71.7559705118594
F184.62388736099848
F-20.811403295913834
F-201.38078474433516
F-66.24884960197392
F295.5867139723362
F44.106940884406725
F-455.67541832661897
F323.6762526411438
F243.68065556351678
F-477.4100302661429
F198.0686036728248
F9.716692984797335
F71.65099566688647
F-292.92291286226236
F215.16434579179406
F95.68263731135205
F-116.2980392019682
F-98.84300745117955
F122.822685034551
F194.5350552868112
F-320.99303628521585
F107.95724430967519
F-1.0434105815944208
F-1.04286415446364
F-1.042313969844785
F-1.0417600018996138
F17.59478406405608
F195.72992895427865
F-574.8792034233701
F363.6870967648522
F102.02808835180441
F-232.75545421091687
F118.34984821331008
F15.675927561963155
F215.8388152315894
F-480.8877080368694
F261.2776659728643
F228.13593780474667
F-503.53352041746797
F248.5371031411421
F-117.41417684575673
F252.06246015765325
F-130.30678671187076
F-8.446653062408863
F-121.56974665239349
F392.92701368410184
F-543.3553630383095
F271.8504412592201
F-1.0912200826716032
F10.844448706439131
F268.89752372366905
F-427.0326671755786
F0.2151740112895222
F136.27580937973818
F-143.83438354667973
F148.0489980791265
F136.02469208007722
F-435.4415866072906
F592.0342440256923
F-449.2709586716888
F302.6546111313654
F-159.88789157544696
F-309.50621387625466
F463.1218562703044
F-315.4967084790992
F158.23579820570396
F161.64387602532074
F-161.64681734662875
F164.25766669223103
F-502.0085157235474
F160.48565648796995
F338.1302075503773
F341.8831821389758
F-1192.9626890195254
F848.3678534878832
F-171.58909137908768
F177.21159655300556
tp12
abag0
(g7
g2
Ntp13
Rp14
(lp15
F100.0
aF20.0
a(ta(F0.0
F0.0014880952380952382
F0.0029761904761904765
F0.004464285714285714
F0.005952380952380953
F0.007440476190476191
F0.008928571428571428
F0.010416666666666668
F0.011904761904761906
F0.013392857142857142
F0.014880952380952382
F0.01636904761904762
F0.017857142857142856
F0.019345238095238096
F0.020833333333333336
F0.022321428571428572
F0.02380952380952381
F0.02529761904761905
F0.026785714285714284
F0.028273809523809524
F0.029761904761904764
F0.03125
F0.03273809523809524
F0.03422619047619048
F0.03571428571428571
F0.03720238095238095
F0.03869047619047619
F0.04017857142857143
F0.04166666666666667
F0.043154761904761904
F0.044642857142857144
F0.046130952380952384
F0.04761904761904762
F0.04910714285714286
F0.0505952380952381
F0.05208333333333334
F0.05357142857142857
F0.05505952380952381
F0.05654761904761905
F0.05803571428571429
F0.05952380952380953
F0.06101190476190477
F0.0625
F0.06398809523809523
F0.06547619047619048
F0.06696428571428571
F0.06845238095238096
F0.06994047619047619
F0.07142857142857142
F0.07291666666666667
F0.0744047619047619
F0.07589285714285715
F0.07738095238095238
F0.07886904761904763
F0.08035714285714286
F0.08184523809523811
F0.08333333333333334
F0.08482142857142859
F0.08630952380952381
F0.08779761904761904
F0.08928571428571429
F0.09077380952380952
F0.09226190476190477
F0.09375
F0.09523809523809525
F0.09672619047619048
F0.09821428571428573
F0.09970238095238096
F0.1011904761904762
F0.10267857142857144
F0.10416666666666669
F0.1056547619047619
F0.10714285714285714
F0.10863095238095238
F0.11011904761904762
F0.11160714285714286
F0.1130952380952381
F0.11458333333333334
F0.11607142857142858
F0.11755952380952382
F0.11904761904761905
F0.1205357142857143
F0.12202380952380953
F0.12351190476190478
F0.125
F0.12648809523809523
F0.12797619047619047
F0.12946428571428573
F0.13095238095238096
F0.1324404761904762
F0.13392857142857142
F0.13541666666666669
F0.13690476190476192
F0.13839285714285715
F0.13988095238095238
F0.14136904761904764
F0.14285714285714285
F0.1443452380952381
F0.14583333333333334
F0.14732142857142858
F0.1488095238095238
F0.15029761904761904
F0.1517857142857143
F0.15327380952380953
F0.15476190476190477
F0.15625
F0.15773809523809526
F0.1592261904761905
F0.16071428571428573
F0.16220238095238096
F0.16369047619047622
F0.16517857142857145
F0.16666666666666669
F0.16815476190476192
F0.16964285714285718
F0.1711309523809524
F0.17261904761904762
F0.17410714285714285
F0.17559523809523808
F0.17708333333333334
F0.17857142857142858
F0.1800595238095238
F0.18154761904761904
F0.1830357142857143
F0.18452380952380953
F0.18601190476190477
F0.1875
F0.18898809523809526
F0.1904761904761905
F0.19196428571428573
F0.19345238095238096
F0.1949404761904762
F0.19642857142857145
F0.19791666666666669
F0.19940476190476192
F0.20089285714285715
F0.2023809523809524
F0.20386904761904764
F0.20535714285714288
F0.2068452380952381
F0.20833333333333337
F0.20982142857142858
F0.2113095238095238
F0.21279761904761904
F0.21428571428571427
F0.21577380952380953
F0.21726190476190477
F0.21875
F0.22023809523809523
F0.2217261904761905
F0.22321428571428573
F0.22470238095238096
F0.2261904761904762
F0.22767857142857145
F0.22916666666666669
F0.23065476190476192
F0.23214285714285715
F0.2336309523809524
F0.23511904761904764
F0.23660714285714288
F0.2380952380952381
F0.23958333333333337
F0.2410714285714286
F0.24255952380952384
F0.24404761904761907
F0.2455357142857143
F0.24702380952380956
F0.24851190476190477
F0.25
F0.25148809523809523
F0.25297619047619047
F0.2544642857142857
F0.25595238095238093
F0.2574404761904762
F0.25892857142857145
F0.2604166666666667
F0.2619047619047619
F0.26339285714285715
F0.2648809523809524
F0.2663690476190476
F0.26785714285714285
F0.26934523809523814
F0.27083333333333337
F0.2723214285714286
F0.27380952380952384
F0.27529761904761907
F0.2767857142857143
F0.27827380952380953
F0.27976190476190477
F0.28125000000000006
F0.2827380952380953
F0.2842261904761905
F0.2857142857142857
F0.28720238095238093
F0.2886904761904762
F0.29017857142857145
F0.2916666666666667
F0.2931547619047619
F0.29464285714285715
F0.2961309523809524
F0.2976190476190476
F0.2991071428571429
F0.3005952380952381
F0.30208333333333337
F0.3035714285714286
F0.3050595238095238
F0.30654761904761907
F0.30803571428571425
F0.30952380952380953
F0.31101190476190477
F0.3125
F0.31398809523809523
F0.3154761904761905
F0.3169642857142857
F0.318452380952381
F0.31994047619047616
F0.32142857142857145
F0.3229166666666667
F0.3244047619047619
F0.32589285714285715
F0.32738095238095244
F0.3288690476190476
F0.3303571428571429
F0.3318452380952381
F0.33333333333333337
F0.3348214285714286
F0.33630952380952384
F0.33779761904761907
F0.33928571428571436
F0.34077380952380953
F0.3422619047619048
F0.34375
F0.34523809523809523
F0.3467261904761905
F0.3482142857142857
F0.349702380952381
F0.35119047619047616
F0.35267857142857145
F0.3541666666666667
F0.3556547619047619
F0.35714285714285715
F0.35863095238095244
F0.3601190476190476
F0.3616071428571429
F0.3630952380952381
F0.36458333333333337
F0.3660714285714286
F0.36755952380952384
F0.36904761904761907
F0.37053571428571436
F0.37202380952380953
F0.3735119047619048
F0.375
F0.3764880952380953
F0.3779761904761905
F0.37946428571428575
F0.380952380952381
F0.38244047619047616
F0.38392857142857145
F0.3854166666666667
F0.3869047619047619
F0.38839285714285715
F0.3898809523809524
F0.3913690476190476
F0.3928571428571429
F0.3943452380952381
F0.39583333333333337
F0.3973214285714286
F0.39880952380952384
F0.40029761904761907
F0.4017857142857143
F0.40327380952380953
F0.4047619047619048
F0.40625
F0.4077380952380953
F0.40922619047619047
F0.41071428571428575
F0.412202380952381
F0.4136904761904762
F0.41517857142857145
F0.41666666666666674
F0.4181547619047619
F0.41964285714285715
F0.4211309523809524
F0.4226190476190476
F0.4241071428571429
F0.4255952380952381
F0.42708333333333337
F0.42857142857142855
F0.43005952380952384
F0.43154761904761907
F0.4330357142857143
F0.43452380952380953
F0.4360119047619048
F0.4375
F0.4389880952380953
F0.44047619047619047
F0.44196428571428575
F0.443452380952381
F0.4449404761904762
F0.44642857142857145
F0.44791666666666674
F0.4494047619047619
F0.4508928571428572
F0.4523809523809524
F0.45386904761904767
F0.4553571428571429
F0.45684523809523814
F0.45833333333333337
F0.45982142857142855
F0.46130952380952384
F0.46279761904761907
F0.4642857142857143
F0.46577380952380953
F0.4672619047619048
F0.46875
F0.4702380952380953
F0.47172619047619047
F0.47321428571428575
F0.474702380952381
F0.4761904761904762
F0.47767857142857145
F0.47916666666666674
F0.4806547619047619
F0.4821428571428572
F0.4836309523809524
F0.48511904761904767
F0.4866071428571429
F0.48809523809523814
F0.48958333333333337
F0.4910714285714286
F0.49255952380952384
F0.4940476190476191
F0.4955357142857143
F0.49702380952380953
F0.49851190476190477
F0.5
F0.5014880952380952
F0.5029761904761905
F0.5044642857142857
F0.5059523809523809
F0.5074404761904763
F0.5089285714285714
F0.5104166666666667
F0.5119047619047619
F0.5133928571428572
F0.5148809523809524
F0.5163690476190477
F0.5178571428571429
F0.5193452380952381
F0.5208333333333334
F0.5223214285714286
F0.5238095238095238
F0.5252976190476191
F0.5267857142857143
F0.5282738095238095
F0.5297619047619048
F0.5312500000000001
F0.5327380952380952
F0.5342261904761905
F0.5357142857142857
F0.5372023809523809
F0.5386904761904763
F0.5401785714285714
F0.5416666666666667
F0.5431547619047619
F0.5446428571428572
F0.5461309523809524
F0.5476190476190477
F0.5491071428571429
F0.5505952380952381
F0.5520833333333334
F0.5535714285714286
F0.5550595238095238
F0.5565476190476191
F0.5580357142857143
F0.5595238095238095
F0.5610119047619048
F0.5625000000000001
F0.5639880952380952
F0.5654761904761906
F0.5669642857142857
F0.568452380952381
F0.5699404761904763
F0.5714285714285714
F0.5729166666666667
F0.5744047619047619
F0.5758928571428572
F0.5773809523809524
F0.5788690476190477
F0.5803571428571429
F0.5818452380952381
F0.5833333333333334
F0.5848214285714286
F0.5863095238095238
F0.5877976190476191
F0.5892857142857143
F0.5907738095238095
F0.5922619047619048
F0.59375
F0.5952380952380952
F0.5967261904761905
F0.5982142857142858
F0.599702380952381
F0.6011904761904762
F0.6026785714285714
F0.6041666666666667
F0.605654761904762
F0.6071428571428572
F0.6086309523809523
F0.6101190476190476
F0.6116071428571429
F0.6130952380952381
F0.6145833333333334
F0.6160714285714285
F0.6175595238095238
F0.6190476190476191
F0.6205357142857143
F0.6220238095238095
F0.6235119047619049
F0.625
F0.6264880952380952
F0.6279761904761905
F0.6294642857142858
F0.630952380952381
F0.6324404761904762
F0.6339285714285714
F0.6354166666666667
F0.636904761904762
F0.6383928571428572
F0.6398809523809523
F0.6413690476190477
F0.6428571428571429
F0.6443452380952381
F0.6458333333333334
F0.6473214285714287
F0.6488095238095238
F0.6502976190476191
F0.6517857142857143
F0.6532738095238095
F0.6547619047619049
F0.65625
F0.6577380952380952
F0.6592261904761905
F0.6607142857142858
F0.662202380952381
F0.6636904761904762
F0.6651785714285714
F0.6666666666666667
F0.668154761904762
F0.6696428571428572
F0.6711309523809523
F0.6726190476190477
F0.6741071428571429
F0.6755952380952381
F0.6770833333333334
F0.6785714285714287
F0.6800595238095238
F0.6815476190476191
F0.6830357142857143
F0.6845238095238096
F0.6860119047619049
F0.6875
F0.6889880952380952
F0.6904761904761905
F0.6919642857142858
F0.693452380952381
F0.6949404761904762
F0.6964285714285714
F0.6979166666666667
F0.699404761904762
F0.7008928571428572
F0.7023809523809523
F0.7038690476190477
F0.7053571428571429
F0.7068452380952381
F0.7083333333333334
F0.7098214285714287
F0.7113095238095238
F0.7127976190476191
F0.7142857142857143
F0.7157738095238096
F0.7172619047619049
F0.71875
F0.7202380952380952
F0.7217261904761906
F0.7232142857142858
F0.724702380952381
F0.7261904761904762
F0.7276785714285714
F0.7291666666666667
F0.730654761904762
F0.7321428571428572
F0.7336309523809523
F0.7351190476190477
F0.7366071428571429
F0.7380952380952381
F0.7395833333333334
F0.7410714285714287
F0.7425595238095238
F0.7440476190476191
F0.7455357142857143
F0.7470238095238096
F0.7485119047619049
F0.75
F0.7514880952380952
F0.7529761904761906
F0.7544642857142858
F0.755952380952381
F0.7574404761904762
F0.7589285714285715
F0.7604166666666667
F0.761904761904762
F0.7633928571428572
F0.7648809523809523
F0.7663690476190477
F0.7678571428571429
F0.7693452380952381
F0.7708333333333334
F0.7723214285714286
F0.7738095238095238
F0.7752976190476191
F0.7767857142857143
F0.7782738095238096
F0.7797619047619048
F0.78125
F0.7827380952380952
F0.7842261904761906
F0.7857142857142858
F0.787202380952381
F0.7886904761904762
F0.7901785714285715
F0.7916666666666667
F0.793154761904762
F0.7946428571428572
F0.7961309523809524
F0.7976190476190477
F0.7991071428571429
F0.8005952380952381
F0.8020833333333334
F0.8035714285714286
F0.8050595238095238
F0.8065476190476191
F0.8080357142857143
F0.8095238095238096
F0.8110119047619048
F0.8125
F0.8139880952380952
F0.8154761904761906
F0.8169642857142858
F0.8184523809523809
F0.8199404761904762
F0.8214285714285715
F0.8229166666666667
F0.824404761904762
F0.8258928571428571
F0.8273809523809524
F0.8288690476190477
F0.8303571428571429
F0.8318452380952381
F0.8333333333333335
F0.8348214285714286
F0.8363095238095238
F0.8377976190476191
F0.8392857142857143
F0.8407738095238096
F0.8422619047619048
F0.84375
F0.8452380952380952
F0.8467261904761906
F0.8482142857142858
F0.8497023809523809
F0.8511904761904762
F0.8526785714285715
F0.8541666666666667
F0.855654761904762
F0.8571428571428571
F0.8586309523809524
F0.8601190476190477
F0.8616071428571429
F0.8630952380952381
F0.8645833333333335
F0.8660714285714286
F0.8675595238095238
F0.8690476190476191
F0.8705357142857144
F0.8720238095238096
F0.8735119047619048
F0.875
F0.8764880952380952
F0.8779761904761906
F0.8794642857142858
F0.8809523809523809
F0.8824404761904762
F0.8839285714285715
F0.8854166666666667
F0.886904761904762
F0.8883928571428571
F0.8898809523809524
F0.8913690476190477
F0.8928571428571429
F0.8943452380952381
F0.8958333333333335
F0.8973214285714286
F0.8988095238095238
F0.9002976190476191
F0.9017857142857144
F0.9032738095238096
F0.9047619047619048
F0.90625
F0.9077380952380953
F0.9092261904761906
F0.9107142857142858
F0.9122023809523809
F0.9136904761904763
F0.9151785714285715
F0.9166666666666667
F0.918154761904762
F0.9196428571428571
F0.9211309523809524
F0.9226190476190477
F0.9241071428571429
F0.9255952380952381
F0.9270833333333335
F0.9285714285714286
F0.9300595238095238
F0.9315476190476191
F0.9330357142857144
F0.9345238095238096
F0.9360119047619048
F0.9375
F0.9389880952380953
F0.9404761904761906
F0.9419642857142858
F0.9434523809523809
F0.9449404761904763
F0.9464285714285715
F0.9479166666666667
F0.949404761904762
F0.9508928571428573
F0.9523809523809524
F0.9538690476190477
F0.9553571428571429
F0.9568452380952381
F0.9583333333333335
F0.9598214285714286
F0.9613095238095238
F0.9627976190476191
F0.9642857142857144
F0.9657738095238096
F0.9672619047619048
F0.96875
F0.9702380952380953
F0.9717261904761906
F0.9732142857142858
F0.9747023809523809
F0.9761904761904763
F0.9776785714285715
F0.9791666666666667
F0.980654761904762
F0.9821428571428572
F0.9836309523809524
F0.9851190476190477
F0.9866071428571429
F0.9880952380952382
F0.9895833333333334
F0.9910714285714286
F0.9925595238095238
F0.9940476190476191
F0.9955357142857144
F0.9970238095238095
F0.9985119047619048
F1.0
tp16
a(F0.0
F-3.5159939199780363
F6.872390917339298
F-6.758680100048412
F6.782903778022274
F-4.981744400477082
F-0.24666382707047305
F7.2233337041481445
F-10.546659049894606
F6.865390148827832
F-1.513165207402885
F-0.03644577325612878
F0.03445849557771044
F0.03749340292060413
F-3.7222306743092664
F5.443463009513271
F-1.5472287620125604
F-0.038708674397477355
F0.05255002447208046
F0.05570933761444873
F-1.8647496804471406
F5.719426250105461
F-1.4481558561706551
F-3.889797046648554
F1.7180338723061608
F-1.7672262492707418
F1.8806253241832045
F-3.8243504113131004
F1.7646028951732284
F14.136279728927148
F-16.504140869493067
F6.621391372452536
F0.7081037260208686
F-8.025508816890348
F7.5215731735680595
F-1.2519495457461767
F4.179255263326879
F-5.785380203900536
F1.681424873259607
F0.29612410024578656
F-6.30182396666201
F7.972953199355165
F-1.195462850469805
F-0.05070306153275407
F4.557373842751004
F-3.7603094467809637
F-0.2505383409322527
F-4.281148730497671
F1.7714509818188349
F11.58799288390843
F-16.503094895324985
F13.929246606082582
F-7.069314617458387
F1.4157280756840371
F2.752113106884609
F-8.759252615190205
F8.185604007485903
F-0.9602723477494578
F4.646689216916634
F-1.4600003709326057
F-7.138580579305657
F8.735905547846272
F-10.51316841183662
F13.05895850946357
F-7.437715257604372
F-1.124110537896576
F5.083808486662132
F-6.408118385242201
F11.373475246381211
F-10.186128048154858
F5.8710130123699695
F-3.6763985626215234
F7.096538122081003
F-8.69389379647178
F3.7249817616281384
F-1.5353824491434596
F4.978794061922055
F-1.4330165139956546
F2.458741255985163
F-4.4040001908831234
F4.6371595596608195
F-4.0740244963703764
F-0.6836231461373015
F13.678257201425438
F-18.71503209272278
F7.234519475830117
F4.864317311237611
F0.91080749854359
F-5.097461567612209
F2.0348450801277713
F0.8494466432291501
F3.1587920949943293
F-1.8649669469944008
F-2.9645404946611884
F2.555593404524104
F-1.9332396811040842
F5.4693839343998025
F-9.966866474443476
F6.565920418792461
F7.939816177670496
F-7.063160015907024
F1.4948794403770629
F1.0067067286898892
F-5.551617727291681
F4.981504674897867
F-7.385574469241496
F10.363851011503401
F-3.035458247266557
F-13.141466860517351
F9.473753032233336
F-3.1152990594378753
F1.8439922546624246
F4.074725735812712
F4.152268834457689
F-11.377797128969073
F-2.979754168465986
F3.2099578665374184
F4.190740519003494
F-2.3049821784779296
F2.5711165070187016
F-8.642732330762922
F0.7412890438186733
F4.1129611889140305
F-2.3576345040373115
F-10.733353985548247
F-2.9042812073318296
F16.309191509503037
F-5.295738784608853
F-6.396495192681796
F-1.1233093479590417
F-3.476393238756877
F1.9887503814046257
F4.200147388309918
F-6.192038752440212
F-5.832609903637326
F2.1066194102483484
F0.6186436612103056
F-7.3271571599135905
F0.2887592203892706
F4.138930846476337
F-6.331747433170206
F4.366067853744967
F-2.0297391374182348
F-5.192155624655862
F5.214923298826564
F-5.530826063625424
F-3.326684912112195
F-4.013039256988408
F9.05054042371489
F-1.074704905898934
F-8.96616418548697
F-3.8373614450045803
F6.579438950392273
F1.890560078073768
F-15.978618996337884
F12.83142691641106
F1.737533070465485
F-1.8247904513926496
F-4.782647658212743
F-6.457067211235315
F10.196234758488098
F-1.3234212164773744
F1.846891251986386
F-5.817115407150275
F-1.8866441713914877
F-3.4519319210918242
F14.426326347550152
F-6.625576420185588
F-13.710870093388579
F20.43306687457987
F0.7512418613195587
F-8.03933417767472
F10.22122433141195
F-12.566385068031407
F1.3898507186402866
F6.764618112102256
F-7.536681737230752
F0.3767745401148345
F9.630455211956686
F-5.825698389645477
F-7.986941347058703
F18.75215098801074
F-8.87427109326019
F-3.120260247910696
F-7.598501953609361
F-0.10754738316664214
F9.838771735735754
F3.568773830289309
F-4.973494145187422
F1.8599359275464076
F-6.960869473887717
F-0.5573667412425963
F5.661247607111225
F-2.763573517166243
F11.333216336049768
F-12.767419197238231
F-13.756002901116434
F16.042466903419573
F3.3149766300566235
F-7.616066818195547
F7.11351417705072
F-5.710101124166011
F-0.424555007660995
F1.9632104893253488
F-10.373770179730101
F4.417414390314657
F13.890773060855425
F-0.26010339962922163
F-12.65200980761586
F4.291097070343902
F-0.04410103217859059
F11.58315254547904
F-2.5165871743396173
F10.132531104459485
F-7.632087716730817
F-23.37955057152465
F17.345389958488276
F2.5533279793013266
F4.89584373976008
F-15.754233969834848
F20.353920650838425
F-14.839747760154905
F-7.067876636661824
F16.097191850394346
F-15.94178030655764
F4.195456420874073
F-2.0923274132199725
F-1.412769880765972
F-3.0535707498397184
F1.97234494004985
F-19.005265782978856
F19.059979886900763
F7.487352588755201
F-17.647207140753036
F-1.6239611968344128
F2.339119972126826
F-6.347320996101226
F1.6993641606282364
F-9.102367840347716
F-7.973211641028614
F10.453362739467734
F-11.693340541849276
F17.431435111621855
F-12.026973448223343
F-19.2033819405669
F3.8598489887333782
F14.121633565878803
F-11.384095839641569
F-18.790804594041102
F12.719041912752726
F-8.255223780697238
F-1.4040611737775226
F6.076158831666102
F-13.635492792704158
F8.533198774136848
F3.9111756653307252
F-18.11170350851257
F15.259345084317294
F-4.023117214666225
F4.986829616197345
F-14.092989837007105
F5.98015107428837
F-3.314864194781057
F-8.274412595370043
F8.982374143300923
F2.740898628813642
F-7.9992874739124655
F-5.9186272300402
F10.585679427272321
F-5.321857797318138
F-4.156849223974565
F16.237010591252666
F-5.02917078526028
F-30.970997219549908
F2.901766130092784
F5.812772060192136
F-13.768113456582272
F13.765309918992598
F-13.93234122099446
F3.489602994467741
F26.1814490657034
F-16.58744883912524
F-10.790294920677994
F-3.831440603512769
F6.443420905440652
F1.8536024240793498
F-7.03320214475331
F-8.848001767952415
F5.970853248892146
F-4.904807385609149
F-13.614006781201756
F19.307992996670052
F8.702445003209721
F-15.044295957300138
F6.3977011905498395
F-4.240226429976579
F-21.29726121535407
F20.932811257197127
F23.140235949370783
F-38.2931187735452
F-11.820125108081417
F39.59675122216148
F-4.133855972299788
F-29.06777703239292
F6.047257964071725
F-3.817582835227227
F15.499522568330962
F25.699573975733653
F-39.799160709865994
F-5.421663554638969
F18.100859592444376
F-8.543172854426492
F-9.553296406296132
F-1.4247480400834547
F37.15216673373362
F-27.20602020897505
F-13.726762912123633
F27.69271459812879
F-8.815986282320381
F6.66006829449551
F-9.801071448432713
F7.6229859598002285
F14.28536157289936
F-25.073126827173517
F6.927793158990881
F6.979177074014151
F-9.481913167929289
F15.529320919378138
F-9.166011113059032
F-1.027641162756856
F7.573569094289461
F-9.443673062551717
F-0.9717231610008192
F7.493543410712625
F8.110226618872657
F-9.035044883446654
F-10.003297324227525
F16.056425303744017
F0.7641618044382975
F-1.9221223416851971
F9.830709316525853
F-1.101646726869432
F-17.27177808253064
F-3.434854706760305
F19.860075540635233
F-28.21982704270136
F14.94148060945062
F21.699752914457324
F-29.4116395072728
F-11.154253978846032
F26.192559184095636
F12.887346140925938
F-11.965288985213725
F-7.969584537300051
F-13.060571039413395
F10.114902528184542
F-9.933568052099496
F6.840889568715554
F12.345990069046897
F-11.55760871344192
F-0.5786682057628334
F8.921959273013957
F-17.223660784203794
F-17.07983716057492
F22.569553722738892
F9.051958750470906
F-7.527146411269522
F-15.297582162611638
F11.409228919074778
F9.171801274187642
F2.543395452670501
F-32.74116636331218
F-7.062266847682357
F54.49166899892388
F-0.568321557153779
F-52.37203328053072
F18.698026216448252
F6.0001298787603154
F-7.424488870806782
F16.79960428344935
F-4.0239071841209295
F3.468788701613113
F6.184282632681166
F7.95598422393931
F-28.54422114296633
F-21.454501086851874
F21.63388237034455
F42.18957436182916
F-44.184868199898915
F-11.010491641481496
F4.840299921545141
F29.956884040391998
F-31.35255807679235
F-26.9356708783362
F51.815866078897095
F10.186214330074016
F-31.68938360571345
F-0.5991185465295873
F-11.397441260214253
F-6.646188018969058
F4.628386787674265
F4.192536966732876
F22.301285729494296
F-17.344040224662127
F-11.80523777289686
F-7.032571397132406
F16.340501151363203
F-0.6252305112299072
F-11.751609747363656
F3.056858675684903
F13.742399760033024
F-26.398075246807366
F28.434508822795667
F19.20909963994881
F-45.43123555782868
F-20.808541084730347
F83.47462594920613
F-41.58942656928818
F-5.227422178560323
F36.15185589252954
F-16.42379231132361
F5.38197429141209
F-49.17026263076817
F19.33151936581873
F-0.6311808613771122
F-0.6327232010345777
F-0.6342761465396345
F11.313274022576724
F21.02483306526342
F-23.297599464848446
F-32.351296967799314
F20.892198594483414
F-12.701581776826586
F-11.373196863583196
F45.53917383926867
F-14.405143977504807
F-67.94025896613775
F66.77838124858681
F-22.754243865799943
F10.002167063207116
F-36.52020641494584
F46.79901697959037
F-36.98238491346327
F10.992952468716748
F-25.96769687959187
F-1.741620589138329
F10.3627454284898
F36.986685908779236
F12.574810526445702
F-25.801717930592243
F-0.7084306352570137
F11.870618690258732
F1.2161711769229129
F-54.39368766244481
F48.97607728001601
F71.34290262604557
F-81.47872390129825
F-13.337098639481308
F-16.79925125372335
F14.478345538119465
F-17.43904693901653
F53.0646993357048
F7.930111453334377
F-67.39256793863763
F92.43453969961993
F-72.16156476491386
F-18.851025857378904
F29.188734798093066
F12.277328610192578
F17.81016711597679
F-57.75513972150763
F-25.079645376720464
F80.37318454031988
F-58.53734618461443
F-40.121561620206336
F62.98057255223242
F-14.074743618559266
F-21.27283938241793
F45.25491109838512
F7.2909098202439155
F-42.923850992394705
F28.69113899085658
F-52.925847773865776
F99.58580131522743
F-79.25530471443601
F56.89070002993861
F-22.722310757312883
F9.33931287258119
F-60.06328307841122
F62.11436811027036
F61.30859925656213
F-62.35940762250062
F-36.74139562410092
F73.75261854814875
F-87.49871719869304
F76.15659227830378
F-26.316668995427676
F-93.55079979376447
F11.33023666697717
F133.70340151204945
F-80.92841509276367
F-14.091001390978787
F-16.48249297189211
F56.280855756212596
F-58.72153946564896
F84.77746827466044
F-26.472055965745348
F-60.0091011196754
F59.01908327436687
F-75.21656204202826
F42.80258865747389
F39.62895164962122
F97.6526321157503
F-122.10982969248344
F32.60715907338104
F-46.44297427232207
F-0.7887203075467795
F27.016746844544485
F95.50632833893134
F-10.042094712555192
F-60.72197807126287
F-7.813681279628383
F96.15832778610105
F-184.8938729472715
F89.73661061211894
F140.84550089670205
F-47.28848077977336
F-66.31568717690571
F-177.8373158509318
F286.1831541778265
F-102.63131583110228
F1.1417041322216415
F1.8965126739807356
F28.328319584585802
F99.59736381226938
F-78.2431426006927
F-68.42865274388559
F129.49049662151094
F-140.60926466653748
F90.39189228962893
F-87.10390554990711
F90.5262838206211
F-88.31554865141696
F93.03731438404344
F-78.2918733230047
F145.62615395971514
F-138.9921872766801
F116.30587790326854
F-237.65913502730373
F284.523563753508
F-148.9286555390141
F-99.79963721438062
F155.17170441858667
F78.71739535685
F-284.14464196108605
F-69.42259868247622
F302.4135990267913
F-131.0370203596727
F-13.789957316914903
F-41.68032751281974
F149.31503048805874
F32.552407243550675
F-181.48093532485444
F101.35543816389485
F-188.49295612775592
F153.96213244016838
F73.19492405385431
F-62.82993768475085
F-306.1706023527096
F353.09817784788487
F-73.43697366442804
F-0.19575479249917382
F-39.547762004403474
F-167.8531093027498
F331.83219485848736
F-285.47349653771226
F153.8253060140453
F12.559328721420565
F68.0064993137185
F-92.02845371174044
F-69.68593691162343
F67.82553324706929
F-72.47536977137455
F93.76173958402217
F73.84538206304364
F-83.9908399696497
F24.125930729487347
F162.86458808146045
F-131.86114696658947
F-291.5881197613831
F404.0112889847162
F-244.49253415235236
F169.391290064165
F-89.58981290685853
F11.21205039548588
F94.3491870222034
F-32.83191251150826
F-259.0276231555466
F208.2540116048619
F146.76923910731236
F-359.1598270874961
F177.52320519814864
F-52.68967803836231
F360.42577647344353
F-291.6779910573639
F10.714454903594065
F81.15421403185196
F-204.11396085864644
F7.35499497194257
F112.5579155758299
F74.17341504666385
F-307.0936291864667
F142.91391259025832
F381.3279101669901
F-522.6124966640878
F207.03001224652309
F-112.44637491820319
F17.043399419467473
F213.03938742876582
F-101.20232640915691
F105.15789790547494
F-103.77063704057927
F109.12195152155698
F-129.4356926413709
F-236.76029054978906
F132.71831898236465
F230.20245106183484
F-118.33586190601133
F-0.1515888493397811
F-16.89151134318643
F-225.75126137041244
F370.65285555182766
F-4.323514652902156
F-124.44293400199246
F-0.14087274623923582
F-22.752219090333206
F-373.3934615212025
F386.2618361947484
F-7.186693964753885
F-106.52451409624055
F513.7153899287117
F-534.6677294278207
F130.11372210535563
F-127.8347997512065
F267.1582523466506
F-269.7675816727747
F281.2945405828241
F-15.364637727830571
F-549.160925643555
F848.4807996163674
F-578.8508370729068
F-0.8068815329664975
F150.98235767290828
F143.16442744940844
F-298.64938294785924
F153.9625605598943
F151.77356810063736
F-316.140520101922
F-2.2100211127780462
F-4.841508079029761
F-2.743043431223644
F-4.771114475666919
F320.88087692337695
F-323.08247737261183
F495.8041413808788
F-495.53620368288375
F332.8109538828485
F-339.14014700226124
F-178.93550018344922
F166.60160533994585
F168.7894757290338
F-0.406888403985
F-0.4068884039849999
tp17
abag0
(g7
g2
Ntp18
Rp19
(lp20
F100.0
aF20.0
a(ta(F0.0
F0.0014880952380952382
F0.0029761904761904765
F0.004464285714285714
F0.005952380952380953
F0.007440476190476191
F0.008928571428571428
F0.010416666666666668
F0.011904761904761906
F0.013392857142857142
F0.014880952380952382
F0.01636904761904762
F0.017857142857142856
F0.019345238095238096
F0.020833333333333336
F0.022321428571428572
F0.02380952380952381
F0.02529761904761905
F0.026785714285714284
F0.028273809523809524
F0.029761904761904764
F0.03125
F0.03273809523809524
F0.03422619047619048
F0.03571428571428571
F0.03720238095238095
F0.03869047619047619
F0.04017857142857143
F0.04166666666666667
F0.043154761904761904
F0.044642857142857144
F0.046130952380952384
F0.04761904761904762
F0.04910714285714286
F0.0505952380952381
F0.05208333333333334
F0.05357142857142857
F0.05505952380952381
F0.05654761904761905
F0.05803571428571429
F0.05952380952380953
F0.06101190476190477
F0.0625
F0.06398809523809523
F0.06547619047619048
F0.06696428571428571
F0.06845238095238096
F0.06994047619047619
F0.07142857142857142
F0.07291666666666667
F0.0744047619047619
F0.07589285714285715
F0.07738095238095238
F0.07886904761904763
F0.08035714285714286
F0.08184523809523811
F0.08333333333333334
F0.08482142857142859
F0.08630952380952381
F0.08779761904761904
F0.08928571428571429
F0.09077380952380952
F0.09226190476190477
F0.09375
F0.09523809523809525
F0.09672619047619048
F0.09821428571428573
F0.09970238095238096
F0.1011904761904762
F0.10267857142857144
F0.10416666666666669
F0.1056547619047619
F0.10714285714285714
F0.10863095238095238
F0.11011904761904762
F0.11160714285714286
F0.1130952380952381
F0.11458333333333334
F0.11607142857142858
F0.11755952380952382
F0.11904761904761905
F0.1205357142857143
F0.12202380952380953
F0.12351190476190478
F0.125
F0.12648809523809523
F0.12797619047619047
F0.12946428571428573
F0.13095238095238096
F0.1324404761904762
F0.13392857142857142
F0.13541666666666669
F0.13690476190476192
F0.13839285714285715
F0.13988095238095238
F0.14136904761904764
F0.14285714285714285
F0.1443452380952381
F0.14583333333333334
F0.14732142857142858
F0.1488095238095238
F0.15029761904761904
F0.1517857142857143
F0.15327380952380953
F0.15476190476190477
F0.15625
F0.15773809523809526
F0.1592261904761905
F0.16071428571428573
F0.16220238095238096
F0.16369047619047622
F0.16517857142857145
F0.16666666666666669
F0.16815476190476192
F0.16964285714285718
F0.1711309523809524
F0.17261904761904762
F0.17410714285714285
F0.17559523809523808
F0.17708333333333334
F0.17857142857142858
F0.1800595238095238
F0.18154761904761904
F0.1830357142857143
F0.18452380952380953
F0.18601190476190477
F0.1875
F0.18898809523809526
F0.1904761904761905
F0.19196428571428573
F0.19345238095238096
F0.1949404761904762
F0.19642857142857145
F0.19791666666666669
F0.19940476190476192
F0.20089285714285715
F0.2023809523809524
F0.20386904761904764
F0.20535714285714288
F0.2068452380952381
F0.20833333333333337
F0.20982142857142858
F0.2113095238095238
F0.21279761904761904
F0.21428571428571427
F0.21577380952380953
F0.21726190476190477
F0.21875
F0.22023809523809523
F0.2217261904761905
F0.22321428571428573
F0.22470238095238096
F0.2261904761904762
F0.22767857142857145
F0.22916666666666669
F0.23065476190476192
F0.23214285714285715
F0.2336309523809524
F0.23511904761904764
F0.23660714285714288
F0.2380952380952381
F0.23958333333333337
F0.2410714285714286
F0.24255952380952384
F0.24404761904761907
F0.2455357142857143
F0.24702380952380956
F0.24851190476190477
F0.25
F0.25148809523809523
F0.25297619047619047
F0.2544642857142857
F0.25595238095238093
F0.2574404761904762
F0.25892857142857145
F0.2604166666666667
F0.2619047619047619
F0.26339285714285715
F0.2648809523809524
F0.2663690476190476
F0.26785714285714285
F0.26934523809523814
F0.27083333333333337
F0.2723214285714286
F0.27380952380952384
F0.27529761904761907
F0.2767857142857143
F0.27827380952380953
F0.27976190476190477
F0.28125000000000006
F0.2827380952380953
F0.2842261904761905
F0.2857142857142857
F0.28720238095238093
F0.2886904761904762
F0.29017857142857145
F0.2916666666666667
F0.2931547619047619
F0.29464285714285715
F0.2961309523809524
F0.2976190476190476
F0.2991071428571429
F0.3005952380952381
F0.30208333333333337
F0.3035714285714286
F0.3050595238095238
F0.30654761904761907
F0.30803571428571425
F0.30952380952380953
F0.31101190476190477
F0.3125
F0.31398809523809523
F0.3154761904761905
F0.3169642857142857
F0.318452380952381
F0.31994047619047616
F0.32142857142857145
F0.3229166666666667
F0.3244047619047619
F0.32589285714285715
F0.32738095238095244
F0.3288690476190476
F0.3303571428571429
F0.3318452380952381
F0.33333333333333337
F0.3348214285714286
F0.33630952380952384
F0.33779761904761907
F0.33928571428571436
F0.34077380952380953
F0.3422619047619048
F0.34375
F0.34523809523809523
F0.3467261904761905
F0.3482142857142857
F0.349702380952381
F0.35119047619047616
F0.35267857142857145
F0.3541666666666667
F0.3556547619047619
F0.35714285714285715
F0.35863095238095244
F0.3601190476190476
F0.3616071428571429
F0.3630952380952381
F0.36458333333333337
F0.3660714285714286
F0.36755952380952384
F0.36904761904761907
F0.37053571428571436
F0.37202380952380953
F0.3735119047619048
F0.375
F0.3764880952380953
F0.3779761904761905
F0.37946428571428575
F0.380952380952381
F0.38244047619047616
F0.38392857142857145
F0.3854166666666667
F0.3869047619047619
F0.38839285714285715
F0.3898809523809524
F0.3913690476190476
F0.3928571428571429
F0.3943452380952381
F0.39583333333333337
F0.3973214285714286
F0.39880952380952384
F0.40029761904761907
F0.4017857142857143
F0.40327380952380953
F0.4047619047619048
F0.40625
F0.4077380952380953
F0.40922619047619047
F0.41071428571428575
F0.412202380952381
F0.4136904761904762
F0.41517857142857145
F0.41666666666666674
F0.4181547619047619
F0.41964285714285715
F0.4211309523809524
F0.4226190476190476
F0.4241071428571429
F0.4255952380952381
F0.42708333333333337
F0.42857142857142855
F0.43005952380952384
F0.43154761904761907
F0.4330357142857143
F0.43452380952380953
F0.4360119047619048
F0.4375
F0.4389880952380953
F0.44047619047619047
F0.44196428571428575
F0.443452380952381
F0.4449404761904762
F0.44642857142857145
F0.44791666666666674
F0.4494047619047619
F0.4508928571428572
F0.4523809523809524
F0.45386904761904767
F0.4553571428571429
F0.45684523809523814
F0.45833333333333337
F0.45982142857142855
F0.46130952380952384
F0.46279761904761907
F0.4642857142857143
F0.46577380952380953
F0.4672619047619048
F0.46875
F0.4702380952380953
F0.47172619047619047
F0.47321428571428575
F0.474702380952381
F0.4761904761904762
F0.47767857142857145
F0.47916666666666674
F0.4806547619047619
F0.4821428571428572
F0.4836309523809524
F0.48511904761904767
F0.4866071428571429
F0.48809523809523814
F0.48958333333333337
F0.4910714285714286
F0.49255952380952384
F0.4940476190476191
F0.4955357142857143
F0.49702380952380953
F0.49851190476190477
F0.5
F0.5014880952380952
F0.5029761904761905
F0.5044642857142857
F0.5059523809523809
F0.5074404761904763
F0.5089285714285714
F0.5104166666666667
F0.5119047619047619
F0.5133928571428572
F0.5148809523809524
F0.5163690476190477
F0.5178571428571429
F0.5193452380952381
F0.5208333333333334
F0.5223214285714286
F0.5238095238095238
F0.5252976190476191
F0.5267857142857143
F0.5282738095238095
F0.5297619047619048
F0.5312500000000001
F0.5327380952380952
F0.5342261904761905
F0.5357142857142857
F0.5372023809523809
F0.5386904761904763
F0.5401785714285714
F0.5416666666666667
F0.5431547619047619
F0.5446428571428572
F0.5461309523809524
F0.5476190476190477
F0.5491071428571429
F0.5505952380952381
F0.5520833333333334
F0.5535714285714286
F0.5550595238095238
F0.5565476190476191
F0.5580357142857143
F0.5595238095238095
F0.5610119047619048
F0.5625000000000001
F0.5639880952380952
F0.5654761904761906
F0.5669642857142857
F0.568452380952381
F0.5699404761904763
F0.5714285714285714
F0.5729166666666667
F0.5744047619047619
F0.5758928571428572
F0.5773809523809524
F0.5788690476190477
F0.5803571428571429
F0.5818452380952381
F0.5833333333333334
F0.5848214285714286
F0.5863095238095238
F0.5877976190476191
F0.5892857142857143
F0.5907738095238095
F0.5922619047619048
F0.59375
F0.5952380952380952
F0.5967261904761905
F0.5982142857142858
F0.599702380952381
F0.6011904761904762
F0.6026785714285714
F0.6041666666666667
F0.605654761904762
F0.6071428571428572
F0.6086309523809523
F0.6101190476190476
F0.6116071428571429
F0.6130952380952381
F0.6145833333333334
F0.6160714285714285
F0.6175595238095238
F0.6190476190476191
F0.6205357142857143
F0.6220238095238095
F0.6235119047619049
F0.625
F0.6264880952380952
F0.6279761904761905
F0.6294642857142858
F0.630952380952381
F0.6324404761904762
F0.6339285714285714
F0.6354166666666667
F0.636904761904762
F0.6383928571428572
F0.6398809523809523
F0.6413690476190477
F0.6428571428571429
F0.6443452380952381
F0.6458333333333334
F0.6473214285714287
F0.6488095238095238
F0.6502976190476191
F0.6517857142857143
F0.6532738095238095
F0.6547619047619049
F0.65625
F0.6577380952380952
F0.6592261904761905
F0.6607142857142858
F0.662202380952381
F0.6636904761904762
F0.6651785714285714
F0.6666666666666667
F0.668154761904762
F0.6696428571428572
F0.6711309523809523
F0.6726190476190477
F0.6741071428571429
F0.6755952380952381
F0.6770833333333334
F0.6785714285714287
F0.6800595238095238
F0.6815476190476191
F0.6830357142857143
F0.6845238095238096
F0.6860119047619049
F0.6875
F0.6889880952380952
F0.6904761904761905
F0.6919642857142858
F0.693452380952381
F0.6949404761904762
F0.6964285714285714
F0.6979166666666667
F0.699404761904762
F0.7008928571428572
F0.7023809523809523
F0.7038690476190477
F0.7053571428571429
F0.7068452380952381
F0.7083333333333334
F0.7098214285714287
F0.7113095238095238
F0.7127976190476191
F0.7142857142857143
F0.7157738095238096
F0.7172619047619049
F0.71875
F0.7202380952380952
F0.7217261904761906
F0.7232142857142858
F0.724702380952381
F0.7261904761904762
F0.7276785714285714
F0.7291666666666667
F0.730654761904762
F0.7321428571428572
F0.7336309523809523
F0.7351190476190477
F0.7366071428571429
F0.7380952380952381
F0.7395833333333334
F0.7410714285714287
F0.7425595238095238
F0.7440476190476191
F0.7455357142857143
F0.7470238095238096
F0.7485119047619049
F0.75
F0.7514880952380952
F0.7529761904761906
F0.7544642857142858
F0.755952380952381
F0.7574404761904762
F0.7589285714285715
F0.7604166666666667
F0.761904761904762
F0.7633928571428572
F0.7648809523809523
F0.7663690476190477
F0.7678571428571429
F0.7693452380952381
F0.7708333333333334
F0.7723214285714286
F0.7738095238095238
F0.7752976190476191
F0.7767857142857143
F0.7782738095238096
F0.7797619047619048
F0.78125
F0.7827380952380952
F0.7842261904761906
F0.7857142857142858
F0.787202380952381
F0.7886904761904762
F0.7901785714285715
F0.7916666666666667
F0.793154761904762
F0.7946428571428572
F0.7961309523809524
F0.7976190476190477
F0.7991071428571429
F0.8005952380952381
F0.8020833333333334
F0.8035714285714286
F0.8050595238095238
F0.8065476190476191
F0.8080357142857143
F0.8095238095238096
F0.8110119047619048
F0.8125
F0.8139880952380952
F0.8154761904761906
F0.8169642857142858
F0.8184523809523809
F0.8199404761904762
F0.8214285714285715
F0.8229166666666667
F0.824404761904762
F0.8258928571428571
F0.8273809523809524
F0.8288690476190477
F0.8303571428571429
F0.8318452380952381
F0.8333333333333335
F0.8348214285714286
F0.8363095238095238
F0.8377976190476191
F0.8392857142857143
F0.8407738095238096
F0.8422619047619048
F0.84375
F0.8452380952380952
F0.8467261904761906
F0.8482142857142858
F0.8497023809523809
F0.8511904761904762
F0.8526785714285715
F0.8541666666666667
F0.855654761904762
F0.8571428571428571
F0.8586309523809524
F0.8601190476190477
F0.8616071428571429
F0.8630952380952381
F0.8645833333333335
F0.8660714285714286
F0.8675595238095238
F0.8690476190476191
F0.8705357142857144
F0.8720238095238096
F0.8735119047619048
F0.875
F0.8764880952380952
F0.8779761904761906
F0.8794642857142858
F0.8809523809523809
F0.8824404761904762
F0.8839285714285715
F0.8854166666666667
F0.886904761904762
F0.8883928571428571
F0.8898809523809524
F0.8913690476190477
F0.8928571428571429
F0.8943452380952381
F0.8958333333333335
F0.8973214285714286
F0.8988095238095238
F0.9002976190476191
F0.9017857142857144
F0.9032738095238096
F0.9047619047619048
F0.90625
F0.9077380952380953
F0.9092261904761906
F0.9107142857142858
F0.9122023809523809
F0.9136904761904763
F0.9151785714285715
F0.9166666666666667
F0.918154761904762
F0.9196428571428571
F0.9211309523809524
F0.9226190476190477
F0.9241071428571429
F0.9255952380952381
F0.9270833333333335
F0.9285714285714286
F0.9300595238095238
F0.9315476190476191
F0.9330357142857144
F0.9345238095238096
F0.9360119047619048
F0.9375
F0.9389880952380953
F0.9404761904761906
F0.9419642857142858
F0.9434523809523809
F0.9449404761904763
F0.9464285714285715
F0.9479166666666667
F0.949404761904762
F0.9508928571428573
F0.9523809523809524
F0.9538690476190477
F0.9553571428571429
F0.9568452380952381
F0.9583333333333335
F0.9598214285714286
F0.9613095238095238
F0.9627976190476191
F0.9642857142857144
F0.9657738095238096
F0.9672619047619048
F0.96875
F0.9702380952380953
F0.9717261904761906
F0.9732142857142858
F0.9747023809523809
F0.9761904761904763
F0.9776785714285715
F0.9791666666666667
F0.980654761904762
F0.9821428571428572
F0.9836309523809524
F0.9851190476190477
F0.9866071428571429
F0.9880952380952382
F0.9895833333333334
F0.9910714285714286
F0.9925595238095238
F0.9940476190476191
F0.9955357142857144
F0.9970238095238095
F0.9985119047619048
F1.0
tp21
a(F0.0
F0.0007199261229280929
F0.001444802794005449
F-1.7640313180950713
F-0.09712984392367507
F5.255892695230838
F-3.222863510013895
F1.663694403781395
F-3.5410358251969667
F1.6773566777695672
F-1.7749643661386776
F3.592436199040478
F-3.5294249371691904
F1.6886058862158986
F1.963951677090936
F-1.745352796874709
F-1.959669091033819
F5.5695622696347185
F-5.314634504024454
F-2.27084855688882
F7.496065690283575
F-3.2760521136619896
F1.7343770816625041
F-5.671482533855596
F1.442556176503404
F4.0953621750833635
F-3.6550101998725637
F5.732960715681626
F-3.5329669810764806
F1.7702095469390147
F-3.784834518187851
F1.6853142941270953
F2.223914835397407
F-3.855923812177964
F1.686972761938795
F-1.8870447092709774
F1.89676728328703
F4.4501708650883245
F-3.768953477888399
F-2.45112399920834
F1.9330698931846335
F2.3922165686992
F-4.06496937059398
F-0.4102907535320825
F2.1377702451903167
F-1.9352475236912923
F4.161894500581885
F-1.6679094463306292
F-0.1835655810666065
F2.295649666122032
F-4.185691528563669
F4.052914439109121
F-1.685852625787406
F-0.20271017436962627
F-2.273174907454232
F6.678607096839273
F-5.974629691338604
F-0.8767521065130282
F7.088906767915505
F-6.088987431761669
F3.879298507367979
F-4.0614962989019805
F1.7876301976781854
F2.779930468295408
F-6.8673390044580795
F8.772291764964645
F-3.440101292316122
F-3.036922161467235
F2.0824496101719814
F0.4301325959254744
F2.5845440620578026
F-2.03321941105437
F-0.2885985445241884
F0.06859537028605792
F0.06978699020172806
F-5.086958770927636
F6.888721980052967
F1.316025249074418
F-4.953073293550636
F1.6772338105570819
F3.1796696347943723
F-4.7170433803149106
F1.7749024420834256
F0.5316241150704729
F-2.6299347428044513
F2.2690441362954195
F3.263147883132832
F-4.840712418200623
F7.304589444982301
F-6.552805165272949
F1.2850597392532446
F3.3974016230543027
F-4.939738910543915
F1.7857522124593754
F0.62618608107138
F-2.7591704903369703
F-0.5515794031256108
F2.8826857575583245
F3.563230594612236
F-5.064128382678352
F1.7844865499196438
F-2.273820032913263
F2.3853739135658674
F-2.2815174106196983
F-0.6049340275446591
F3.0017902073127574
F-2.2978830004527393
F5.486024641489046
F-7.685127502967699
F4.0539977998134304
F4.553450793165699
F-11.54783215487309
F9.55110548589075
F-3.2284289204432692
F-1.4686342583414067
F6.34448757808804
F-1.4770710391320874
F-3.8033540247811257
F-0.772672765153745
F0.0009153375927072545
F3.269666485967052
F-5.60920259834574
F1.5570918508442537
F7.388567096276876
F-17.911846947122726
F7.739004744198878
F6.763771672363623
F0.9903192756477979
F-16.75246053194209
F12.037187347481824
F-5.622303627668736
F10.750894492882157
F-6.431522604104659
F4.025994462921918
F-8.473211010562387
F7.441097841146831
F-4.022556310140689
F-2.053662698078887
F3.2914031924028113
F1.048308729050252
F0.03627475784058459
F-3.620732312415955
F9.667635269224487
F-0.17039199329742524
F-8.250385945085464
F1.3227359816081596
F4.797888386959529
F1.2670845617568696
F-7.302663802813761
F8.756455789393987
F-7.452103338401358
F-3.782893467541477
F11.295853115277898
F-7.585235156022851
F0.07646109944025789
F-2.6678676091622133
F2.4675711127234554
F-2.619060680343767
F-5.378534033089199
F18.118924494348523
F-16.613849280392085
F11.067290536915388
F-20.725329839550202
F5.9663277691524454
F8.881184996956213
F-2.534866998179331
F-5.665769848113987
F14.7200099345625
F-18.53742663676389
F2.690385831803136
F4.439060723265839
F-0.2841220260917885
F-0.1958489285823793
F-12.940975459986358
F15.88176584362825
F-0.4934232917208146
F0.85120273073767
F5.912937911528156
F10.410554335767296
F-9.231418580519108
F-0.714728985346996
F-6.891074399130417
F5.02619511112578
F-0.7492695906290344
F7.09275487749543
F-0.5543065465832102
F-1.6824041057613606
F0.14256963388929178
F-4.381587332722749
F7.205157410988884
F-0.4950515674948302
F-10.80427412603858
F4.835709673505733
F-0.4066173342664697
F2.60996993696773
F-2.5189192479226694
F2.6408179977267157
F-2.5328796007325183
F7.382587809810726
F-4.975304877094938
F0.5121538411226767
F-2.5120707058630773
F2.588052796565312
F7.2691883450025525
F-12.11600743697609
F2.8466397655462
F9.71092039888495
F7.546563219776439
F-21.845801965682412
F7.596594385069954
F4.970821548487267
F2.7755649263578763
F-7.2149805109080365
F5.173274742378712
F-10.016765380193197
F7.712437600616652
F2.8228401228017166
F-7.591523382371222
F-2.642226315600752
F5.208979941457106
F2.86208553919946
F0.19349653881950266
F-5.130289544070195
F13.208659940873774
F-7.007883582795119
F2.316688417145021
F-10.034919408029154
F-3.707739522648323
F8.357336090250007
F-2.2860668641977484
F2.53690668671022
F-2.3127624862746012
F13.60481251588309
F-12.444612512060528
F-1.519351330814796
F6.53670628426199
F0.21804919840757206
F0.2202685326242579
F-5.488151441735617
F8.132175809067718
F1.3996924342750927
F2.666956872207977
F-1.9258553277970176
F-9.02915794530443
F-9.371342840375677
F19.630329351430166
F3.273271100082636
F-12.939346988195084
F-9.69903644566593
F-3.901668403206687
F35.86080738117361
F-6.369200225270297
F-12.953711552022966
F-2.012540420207882
F2.1983299097661395
F-1.9764927305104172
F8.422853147784071
F2.268882624569076
F-3.7425908886924573
F6.530062488723283
F4.723632578021584
F-12.072965165446796
F-2.110460396820026
F-1.8907115641792454
F-10.74344681395236
F14.705976728778444
F7.236624639853583
F8.798620710034552
F-16.060128573369216
F7.735750090201089
F-7.26684720253325
F-25.351702737108305
F34.45659161177323
F16.308229183746022
F-22.244686154302126
F-9.790046384878822
F13.585133298276533
F-3.1107262577545858
F-9.98534093041154
F-13.829887540981805
F2.880000589641442
F24.13192171666684
F-2.8832990094804503
F-10.542510853658921
F6.975472789766343
F-15.6621135370672
F18.88776807998747
F6.596965874787991
F-30.759402748725606
F16.795225477220153
F8.683084000940426
F-18.598543951372488
F-6.037166080999889
F6.668087203060791
F20.433186385185294
F-16.98157580840074
F-9.739689362420567
F19.298482727602536
F6.387006757862164
F-22.103740579220432
F3.006730582475114
F11.545094893636096
F-6.268873470219025
F-0.2169162306662852
F7.470323223356925
F-8.479385243268677
F-13.599268652358973
F-0.5148673822149284
F-8.463706341741238
F7.989522009942754
F-2.230452034056815
F-6.868732242063128
F14.309766150776408
F-32.75926554345959
F-14.083001442133865
F20.284259558571463
F7.06872584105749
F-1.240361649270429
F-8.583725975498512
F-17.34869525102733
F-9.448266620033595
F14.388096661849385
F-1.562805579132513
F-9.257063716116392
F6.43387893100394
F-1.7317122928886721
F-1.6904218129447035
F6.839212146022099
F-9.773193778939731
F-18.304288643887038
F-2.414657101496715
F32.26334636655689
F16.505200085603633
F-26.80427012836093
F-10.625377687756709
F-0.5220464471982115
F-11.39413151047761
F31.675692585530356
F10.804194653150953
F-28.609214781150186
F-19.388909313225728
F4.606381756276873
F27.68347778058969
F-9.999919296422693
F15.354140042585097
F11.113883826364399
F-20.67497408618327
F-19.370169112291368
F32.61466014263571
F15.936140652967376
F-16.45833566291682
F23.205695033795834
F-11.877887384379354
F-17.271060136732316
F-5.9360273970384
F13.370165705315516
F24.03417549440147
F27.668183486244406
F-42.24112414851258
F-2.2967863633913304
F20.567028606387087
F2.2877660745474864
F-20.985409642964832
F-12.199919415997666
F18.66782661861549
F14.136329727020474
F-2.1041087512938406
F2.7117003966927795
F-41.55005886429477
F-8.659838311818008
F56.101688254127275
F-3.5297512882080984
F-38.24334403010558
F19.182381843378543
F5.935889372738387
F-16.234233794910242
F2.75351112682934
F16.595608824859763
F-9.607741829326999
F-29.194458397872424
F45.252394357401634
F-13.94283256435011
F-0.08366973689273619
F-0.08352516294544442
F-10.524439235626986
F6.108845344684425
F18.46146134772692
F-14.380055458642232
F-0.08278724340658354
F-20.914863921221325
F21.382651743091067
F23.67812771767237
F-76.36552929015575
F29.728095606649873
F57.785631260903585
F-4.789155993928559
F-41.90059280283036
F-16.715850384524064
F31.63500239579242
F-4.435686154506776
F-29.15002176967018
F50.319715611811745
F-39.41376433117725
F38.767574642869334
F1.658546456803025
F-29.181535793276694
F12.642890981354837
F-35.62954528070512
F32.587456163799814
F21.156841687405574
F-43.43021849831459
F-4.155675994879942
F5.67284688494714
F42.68973275519513
F-34.44952165591355
F3.847993559229368
F-23.87359233120378
F46.238900129321834
F-30.702133567866554
F13.782332598714488
F26.23216269214432
F-60.26979479500808
F33.85880258165097
F15.268634201665028
F-47.80441273115065
F73.39227838114496
F11.43095686976909
F-56.03060889870907
F-52.42219156748911
F31.71011168078951
F33.211796634224115
F22.28217207513764
F-23.102579707338865
F-69.21828995173678
F13.852623550407198
F88.6871474118764
F-20.705840081486528
F-1.7245716031391363
F-44.274790290508356
F45.442611485823605
F-47.06137939638485
F59.84217002631278
F-72.46493798365842
F23.3577004431058
F12.602471127891533
F-26.67111515220821
F76.65357609607145
F-75.47444885202545
F-14.100842736766191
F39.16030978706667
F-29.346674125810697
F105.58280005642398
F-60.840361235042444
F-71.39768183122565
F83.61814331093646
F-71.10299605025217
F69.4561208702346
F-40.05446144180701
F8.766393440751502
F48.481174144637194
F-98.73078338999862
F32.93671490616016
F108.21708837761514
F-99.39501217342315
F-17.58264332814091
F29.246011094821135
F-0.0860005138300979
F-0.0858719673932494
F12.9301282813197
F5.519215557955442
F-36.41524541462624
F36.44863454685041
F-63.207884335267075
F11.36750089423954
F18.34768740538714
F-6.513800449003061
F38.866328815590535
F-80.06069344742738
F18.45449362412276
F107.80058093078432
F-40.38333512275888
F43.79683725118896
F-81.54707074901553
F-49.39548103825587
F29.806721905014243
F72.48518054842225
F-184.91542872018215
F278.25154813575716
F-89.10446074611853
F-132.86445659384336
F74.74988122843146
F86.95599476405047
F-47.52016844244065
F22.7114469744993
F-139.53914890452688
F77.09895966936195
F91.0022485964462
F-64.00262009938146
F-0.06064771694904341
F-122.42385235878918
F37.89678433712924
F135.26791797517444
F17.775041256275664
F-82.69498508588072
F-0.08043982288890161
F-0.08027303854489727
F-41.08752603563346
F-105.21359959122472
F125.02469700526943
F133.1218823798086
F-24.490544246498164
F-141.8063451014739
F-90.58583981430994
F292.401533472597
F-116.16781262309979
F-93.08542623911262
F11.831164153383815
F46.277222506781506
F-0.104694188774
F-0.104694188774
F-13.767158563958061
F-9.189429222240971
F94.7994782659344
F-131.4890494756102
F184.02895468799912
F-225.4122578415643
F100.30067239413937
F13.843767442521
F38.708549239129454
F-65.14561649987617
F-40.14311977406272
F65.8206963152701
F13.445910948954083
F-108.55222474075495
F177.49039234382786
F-151.06987090519996
F68.37129605180999
F29.43706746437159
F-99.48403737576766
F42.460771278808465
F-31.84788359918611
F116.26846689677306
F-25.066761706904785
F-104.95477092076246
F58.54990812013497
F26.62829979689322
F41.757981949644574
F-257.67328039008703
F435.4474929435799
F-284.56649813903385
F-136.37155189919667
F236.76410812650968
F-49.247466224988806
F38.36675101905422
F-103.16087665468453
F77.18752396206546
F-199.39192284559678
F331.2494235597176
F-61.662641420292594
F-299.7282375557791
F214.41199274577073
F82.2477947266886
F21.651265286817925
F-254.87491796057483
F126.49112247014604
F-21.42742657394169
F224.5726585770951
F-334.50114367859777
F143.34651106356006
F-0.10469418877400001
F-0.104694188774
F-0.104694188774
F-13.222513774549544
F-38.806870313815224
F155.09936465367096
F-365.75930485898164
F548.5285985764511
F-419.5123558934362
F280.2293342839122
F-239.93467224269216
F34.79650028825919
F210.1846266288111
F-222.08400300433374
F129.8022370229235
F-218.0116456204351
F241.0973607317999
F-96.16958221093863
F-75.55556693949266
F97.59656747173132
F100.6547481106393
F68.57490911757638
F-186.57365666744664
F-80.2233548028809
F89.32371947944057
F-0.08222346443928208
F-11.98518145157328
F-105.77941381100378
F-63.83946573409327
F281.60614090667355
F-8.380750265286
F-94.6019269016278
F-11.635884376711065
F-75.96220992598448
F184.4637783707287
F-97.29132029731961
F10.725887860639359
F81.16364702832186
F-204.10653906968327
F17.850068233912747
F218.40689023240742
F66.43559955866161
F-410.3986226271266
F121.53874675637739
F168.27439496723315
F-479.83536488580916
F855.1227667699934
F-334.7283151541558
F-109.07958488872745
F-0.07820640372714152
F-29.678700070671788
F-287.63903863264494
F640.4090624097895
F-531.4913055272021
F543.0630432991067
F-567.0728652832461
F350.29737509318744
F-145.01065197406962
F-316.42712028405725
F705.782723140321
F-371.5148466983703
F-108.52802260740953
F248.2317526076901
F-12.29977556840623
F-238.94627728688917
F243.6614523053818
F-267.1762006544707
F-121.00379175349516
F257.5235995320167
F6.827004911034131
F135.70568600271383
F-11.82215842180072
F-394.09256234394513
F542.1902408531853
F-278.2652154759196
F-136.88536565046084
F138.6544020339328
F4.747317162536169
F124.7503283140957
F-554.3293811223356
F722.7197573116898
F-16.02316519598668
F-729.817392260224
F302.088367049435
F449.54139118720343
F-4.38926738774882
F-610.9248172839807
F-0.7637048463159197
F785.8111103024949
F-477.58384557595605
F-310.48003116678944
F469.78996900639436
F-321.4711945934417
F160.79760771857272
F0.29403186056923214
F171.77401131757685
F331.8042521336188
F-1167.978778411369
F836.1081551759089
F2.5655223732840904
F-337.5599091593225
F514.6535309620502
F-340.88477862745236
F-356.7736351682293
tp22
abag0
(g7
g2
Ntp23
Rp24
(lp25
F100.0
aF20.0
a(ta(F0.0
F0.0014880952380952382
F0.0029761904761904765
F0.004464285714285714
F0.005952380952380953
F0.007440476190476191
F0.008928571428571428
F0.010416666666666668
F0.011904761904761906
F0.013392857142857142
F0.014880952380952382
F0.01636904761904762
F0.017857142857142856
F0.019345238095238096
F0.020833333333333336
F0.022321428571428572
F0.02380952380952381
F0.02529761904761905
F0.026785714285714284
F0.028273809523809524
F0.029761904761904764
F0.03125
F0.03273809523809524
F0.03422619047619048
F0.03571428571428571
F0.03720238095238095
F0.03869047619047619
F0.04017857142857143
F0.04166666666666667
F0.043154761904761904
F0.044642857142857144
F0.046130952380952384
F0.04761904761904762
F0.04910714285714286
F0.0505952380952381
F0.05208333333333334
F0.05357142857142857
F0.05505952380952381
F0.05654761904761905
F0.05803571428571429
F0.05952380952380953
F0.06101190476190477
F0.0625
F0.06398809523809523
F0.06547619047619048
F0.06696428571428571
F0.06845238095238096
F0.06994047619047619
F0.07142857142857142
F0.07291666666666667
F0.0744047619047619
F0.07589285714285715
F0.07738095238095238
F0.07886904761904763
F0.08035714285714286
F0.08184523809523811
F0.08333333333333334
F0.08482142857142859
F0.08630952380952381
F0.08779761904761904
F0.08928571428571429
F0.09077380952380952
F0.09226190476190477
F0.09375
F0.09523809523809525
F0.09672619047619048
F0.09821428571428573
F0.09970238095238096
F0.1011904761904762
F0.10267857142857144
F0.10416666666666669
F0.1056547619047619
F0.10714285714285714
F0.10863095238095238
F0.11011904761904762
F0.11160714285714286
F0.1130952380952381
F0.11458333333333334
F0.11607142857142858
F0.11755952380952382
F0.11904761904761905
F0.1205357142857143
F0.12202380952380953
F0.12351190476190478
F0.125
F0.12648809523809523
F0.12797619047619047
F0.12946428571428573
F0.13095238095238096
F0.1324404761904762
F0.13392857142857142
F0.13541666666666669
F0.13690476190476192
F0.13839285714285715
F0.13988095238095238
F0.14136904761904764
F0.14285714285714285
F0.1443452380952381
F0.14583333333333334
F0.14732142857142858
F0.1488095238095238
F0.15029761904761904
F0.1517857142857143
F0.15327380952380953
F0.15476190476190477
F0.15625
F0.15773809523809526
F0.1592261904761905
F0.16071428571428573
F0.16220238095238096
F0.16369047619047622
F0.16517857142857145
F0.16666666666666669
F0.16815476190476192
F0.16964285714285718
F0.1711309523809524
F0.17261904761904762
F0.17410714285714285
F0.17559523809523808
F0.17708333333333334
F0.17857142857142858
F0.1800595238095238
F0.18154761904761904
F0.1830357142857143
F0.18452380952380953
F0.18601190476190477
F0.1875
F0.18898809523809526
F0.1904761904761905
F0.19196428571428573
F0.19345238095238096
F0.1949404761904762
F0.19642857142857145
F0.19791666666666669
F0.19940476190476192
F0.20089285714285715
F0.2023809523809524
F0.20386904761904764
F0.20535714285714288
F0.2068452380952381
F0.20833333333333337
F0.20982142857142858
F0.2113095238095238
F0.21279761904761904
F0.21428571428571427
F0.21577380952380953
F0.21726190476190477
F0.21875
F0.22023809523809523
F0.2217261904761905
F0.22321428571428573
F0.22470238095238096
F0.2261904761904762
F0.22767857142857145
F0.22916666666666669
F0.23065476190476192
F0.23214285714285715
F0.2336309523809524
F0.23511904761904764
F0.23660714285714288
F0.2380952380952381
F0.23958333333333337
F0.2410714285714286
F0.24255952380952384
F0.24404761904761907
F0.2455357142857143
F0.24702380952380956
F0.24851190476190477
F0.25
F0.25148809523809523
F0.25297619047619047
F0.2544642857142857
F0.25595238095238093
F0.2574404761904762
F0.25892857142857145
F0.2604166666666667
F0.2619047619047619
F0.26339285714285715
F0.2648809523809524
F0.2663690476190476
F0.26785714285714285
F0.26934523809523814
F0.27083333333333337
F0.2723214285714286
F0.27380952380952384
F0.27529761904761907
F0.2767857142857143
F0.27827380952380953
F0.27976190476190477
F0.28125000000000006
F0.2827380952380953
F0.2842261904761905
F0.2857142857142857
F0.28720238095238093
F0.2886904761904762
F0.29017857142857145
F0.2916666666666667
F0.2931547619047619
F0.29464285714285715
F0.2961309523809524
F0.2976190476190476
F0.2991071428571429
F0.3005952380952381
F0.30208333333333337
F0.3035714285714286
F0.3050595238095238
F0.30654761904761907
F0.30803571428571425
F0.30952380952380953
F0.31101190476190477
F0.3125
F0.31398809523809523
F0.3154761904761905
F0.3169642857142857
F0.318452380952381
F0.31994047619047616
F0.32142857142857145
F0.3229166666666667
F0.3244047619047619
F0.32589285714285715
F0.32738095238095244
F0.3288690476190476
F0.3303571428571429
F0.3318452380952381
F0.33333333333333337
F0.3348214285714286
F0.33630952380952384
F0.33779761904761907
F0.33928571428571436
F0.34077380952380953
F0.3422619047619048
F0.34375
F0.34523809523809523
F0.3467261904761905
F0.3482142857142857
F0.349702380952381
F0.35119047619047616
F0.35267857142857145
F0.3541666666666667
F0.3556547619047619
F0.35714285714285715
F0.35863095238095244
F0.3601190476190476
F0.3616071428571429
F0.3630952380952381
F0.36458333333333337
F0.3660714285714286
F0.36755952380952384
F0.36904761904761907
F0.37053571428571436
F0.37202380952380953
F0.3735119047619048
F0.375
F0.3764880952380953
F0.3779761904761905
F0.37946428571428575
F0.380952380952381
F0.38244047619047616
F0.38392857142857145
F0.3854166666666667
F0.3869047619047619
F0.38839285714285715
F0.3898809523809524
F0.3913690476190476
F0.3928571428571429
F0.3943452380952381
F0.39583333333333337
F0.3973214285714286
F0.39880952380952384
F0.40029761904761907
F0.4017857142857143
F0.40327380952380953
F0.4047619047619048
F0.40625
F0.4077380952380953
F0.40922619047619047
F0.41071428571428575
F0.412202380952381
F0.4136904761904762
F0.41517857142857145
F0.41666666666666674
F0.4181547619047619
F0.41964285714285715
F0.4211309523809524
F0.4226190476190476
F0.4241071428571429
F0.4255952380952381
F0.42708333333333337
F0.42857142857142855
F0.43005952380952384
F0.43154761904761907
F0.4330357142857143
F0.43452380952380953
F0.4360119047619048
F0.4375
F0.4389880952380953
F0.44047619047619047
F0.44196428571428575
F0.443452380952381
F0.4449404761904762
F0.44642857142857145
F0.44791666666666674
F0.4494047619047619
F0.4508928571428572
F0.4523809523809524
F0.45386904761904767
F0.4553571428571429
F0.45684523809523814
F0.45833333333333337
F0.45982142857142855
F0.46130952380952384
F0.46279761904761907
F0.4642857142857143
F0.46577380952380953
F0.4672619047619048
F0.46875
F0.4702380952380953
F0.47172619047619047
F0.47321428571428575
F0.474702380952381
F0.4761904761904762
F0.47767857142857145
F0.47916666666666674
F0.4806547619047619
F0.4821428571428572
F0.4836309523809524
F0.48511904761904767
F0.4866071428571429
F0.48809523809523814
F0.48958333333333337
F0.4910714285714286
F0.49255952380952384
F0.4940476190476191
F0.4955357142857143
F0.49702380952380953
F0.49851190476190477
F0.5
F0.5014880952380952
F0.5029761904761905
F0.5044642857142857
F0.5059523809523809
F0.5074404761904763
F0.5089285714285714
F0.5104166666666667
F0.5119047619047619
F0.5133928571428572
F0.5148809523809524
F0.5163690476190477
F0.5178571428571429
F0.5193452380952381
F0.5208333333333334
F0.5223214285714286
F0.5238095238095238
F0.5252976190476191
F0.5267857142857143
F0.5282738095238095
F0.5297619047619048
F0.5312500000000001
F0.5327380952380952
F0.5342261904761905
F0.5357142857142857
F0.5372023809523809
F0.5386904761904763
F0.5401785714285714
F0.5416666666666667
F0.5431547619047619
F0.5446428571428572
F0.5461309523809524
F0.5476190476190477
F0.5491071428571429
F0.5505952380952381
F0.5520833333333334
F0.5535714285714286
F0.5550595238095238
F0.5565476190476191
F0.5580357142857143
F0.5595238095238095
F0.5610119047619048
F0.5625000000000001
F0.5639880952380952
F0.5654761904761906
F0.5669642857142857
F0.568452380952381
F0.5699404761904763
F0.5714285714285714
F0.5729166666666667
F0.5744047619047619
F0.5758928571428572
F0.5773809523809524
F0.5788690476190477
F0.5803571428571429
F0.5818452380952381
F0.5833333333333334
F0.5848214285714286
F0.5863095238095238
F0.5877976190476191
F0.5892857142857143
F0.5907738095238095
F0.5922619047619048
F0.59375
F0.5952380952380952
F0.5967261904761905
F0.5982142857142858
F0.599702380952381
F0.6011904761904762
F0.6026785714285714
F0.6041666666666667
F0.605654761904762
F0.6071428571428572
F0.6086309523809523
F0.6101190476190476
F0.6116071428571429
F0.6130952380952381
F0.6145833333333334
F0.6160714285714285
F0.6175595238095238
F0.6190476190476191
F0.6205357142857143
F0.6220238095238095
F0.6235119047619049
F0.625
F0.6264880952380952
F0.6279761904761905
F0.6294642857142858
F0.630952380952381
F0.6324404761904762
F0.6339285714285714
F0.6354166666666667
F0.636904761904762
F0.6383928571428572
F0.6398809523809523
F0.6413690476190477
F0.6428571428571429
F0.6443452380952381
F0.6458333333333334
F0.6473214285714287
F0.6488095238095238
F0.6502976190476191
F0.6517857142857143
F0.6532738095238095
F0.6547619047619049
F0.65625
F0.6577380952380952
F0.6592261904761905
F0.6607142857142858
F0.662202380952381
F0.6636904761904762
F0.6651785714285714
F0.6666666666666667
F0.668154761904762
F0.6696428571428572
F0.6711309523809523
F0.6726190476190477
F0.6741071428571429
F0.6755952380952381
F0.6770833333333334
F0.6785714285714287
F0.6800595238095238
F0.6815476190476191
F0.6830357142857143
F0.6845238095238096
F0.6860119047619049
F0.6875
F0.6889880952380952
F0.6904761904761905
F0.6919642857142858
F0.693452380952381
F0.6949404761904762
F0.6964285714285714
F0.6979166666666667
F0.699404761904762
F0.7008928571428572
F0.7023809523809523
F0.7038690476190477
F0.7053571428571429
F0.7068452380952381
F0.7083333333333334
F0.7098214285714287
F0.7113095238095238
F0.7127976190476191
F0.7142857142857143
F0.7157738095238096
F0.7172619047619049
F0.71875
F0.7202380952380952
F0.7217261904761906
F0.7232142857142858
F0.724702380952381
F0.7261904761904762
F0.7276785714285714
F0.7291666666666667
F0.730654761904762
F0.7321428571428572
F0.7336309523809523
F0.7351190476190477
F0.7366071428571429
F0.7380952380952381
F0.7395833333333334
F0.7410714285714287
F0.7425595238095238
F0.7440476190476191
F0.7455357142857143
F0.7470238095238096
F0.7485119047619049
F0.75
F0.7514880952380952
F0.7529761904761906
F0.7544642857142858
F0.755952380952381
F0.7574404761904762
F0.7589285714285715
F0.7604166666666667
F0.761904761904762
F0.7633928571428572
F0.7648809523809523
F0.7663690476190477
F0.7678571428571429
F0.7693452380952381
F0.7708333333333334
F0.7723214285714286
F0.7738095238095238
F0.7752976190476191
F0.7767857142857143
F0.7782738095238096
F0.7797619047619048
F0.78125
F0.7827380952380952
F0.7842261904761906
F0.7857142857142858
F0.787202380952381
F0.7886904761904762
F0.7901785714285715
F0.7916666666666667
F0.793154761904762
F0.7946428571428572
F0.7961309523809524
F0.7976190476190477
F0.7991071428571429
F0.8005952380952381
F0.8020833333333334
F0.8035714285714286
F0.8050595238095238
F0.8065476190476191
F0.8080357142857143
F0.8095238095238096
F0.8110119047619048
F0.8125
F0.8139880952380952
F0.8154761904761906
F0.8169642857142858
F0.8184523809523809
F0.8199404761904762
F0.8214285714285715
F0.8229166666666667
F0.824404761904762
F0.8258928571428571
F0.8273809523809524
F0.8288690476190477
F0.8303571428571429
F0.8318452380952381
F0.8333333333333335
F0.8348214285714286
F0.8363095238095238
F0.8377976190476191
F0.8392857142857143
F0.8407738095238096
F0.8422619047619048
F0.84375
F0.8452380952380952
F0.8467261904761906
F0.8482142857142858
F0.8497023809523809
F0.8511904761904762
F0.8526785714285715
F0.8541666666666667
F0.855654761904762
F0.8571428571428571
F0.8586309523809524
F0.8601190476190477
F0.8616071428571429
F0.8630952380952381
F0.8645833333333335
F0.8660714285714286
F0.8675595238095238
F0.8690476190476191
F0.8705357142857144
F0.8720238095238096
F0.8735119047619048
F0.875
F0.8764880952380952
F0.8779761904761906
F0.8794642857142858
F0.8809523809523809
F0.8824404761904762
F0.8839285714285715
F0.8854166666666667
F0.886904761904762
F0.8883928571428571
F0.8898809523809524
F0.8913690476190477
F0.8928571428571429
F0.8943452380952381
F0.8958333333333335
F0.8973214285714286
F0.8988095238095238
F0.9002976190476191
F0.9017857142857144
F0.9032738095238096
F0.9047619047619048
F0.90625
F0.9077380952380953
F0.9092261904761906
F0.9107142857142858
F0.9122023809523809
F0.9136904761904763
F0.9151785714285715
F0.9166666666666667
F0.918154761904762
F0.9196428571428571
F0.9211309523809524
F0.9226190476190477
F0.9241071428571429
F0.9255952380952381
F0.9270833333333335
F0.9285714285714286
F0.9300595238095238
F0.9315476190476191
F0.9330357142857144
F0.9345238095238096
F0.9360119047619048
F0.9375
F0.9389880952380953
F0.9404761904761906
F0.9419642857142858
F0.9434523809523809
F0.9449404761904763
F0.9464285714285715
F0.9479166666666667
F0.949404761904762
F0.9508928571428573
F0.9523809523809524
F0.9538690476190477
F0.9553571428571429
F0.9568452380952381
F0.9583333333333335
F0.9598214285714286
F0.9613095238095238
F0.9627976190476191
F0.9642857142857144
F0.9657738095238096
F0.9672619047619048
F0.96875
F0.9702380952380953
F0.9717261904761906
F0.9732142857142858
F0.9747023809523809
F0.9761904761904763
F0.9776785714285715
F0.9791666666666667
F0.980654761904762
F0.9821428571428572
F0.9836309523809524
F0.9851190476190477
F0.9866071428571429
F0.9880952380952382
F0.9895833333333334
F0.9910714285714286
F0.9925595238095238
F0.9940476190476191
F0.9955357142857144
F0.9970238095238095
F0.9985119047619048
F1.0
tp26
a(F0.0
F1.7597598560082304
F0.06872880305846259
F-5.219935642109681
F5.059308884387152
F-1.5594594247656033
F1.7270079838503165
F-3.4859292225414764
F1.654111065675721
F1.884908381224472
F-5.395434548396335
F3.3966738248222463
F2.0036559052448415
F0.12536459836408195
F-3.6895805953760914
F-0.20595446668449105
F1.8416427422484054
F0.09465990504600016
F0.006947826299982781
F5.763057616020739
F-9.122861533942629
F-0.7107562100088111
F9.713550715973138
F-7.110922310862013
F-0.5548374026756204
F5.929405771500871
F-1.4822058454067195
F-6.098373796013254
F3.566771845996567
F4.255889619685468
F-5.567805735720753
F1.4979160545185883
F-3.928543191716436
F5.722039852509563
F-3.5685395984908084
F3.819695662377051
F-1.6982427455039133
F-2.2808705396403255
F4.031542100635165
F-1.6792230201738296
F1.9647115713451353
F-4.043336169630461
F3.9187032498642465
F-1.7058916413552325
F-2.3923947455478567
F1.9730206512767803
F-1.9968244170356482
F4.176449127324709
F-3.9074015839025567
F3.96535585640096
F-1.694410976747599
F-0.2146447156906869
F0.023204297964488422
F0.023727780250707767
F0.024254862245537044
F0.024785568702253312
F2.3611312729073948
F-4.334620917427505
F1.781241169423438
F0.29693354574544323
F4.779545868341304
F-3.9822561779550973
F-5.43288833490221
F1.723344789906469
F10.000282360973547
F-10.743793032162934
F5.677316130819238
F-3.838066725093435
F4.1940852275217955
F-1.6508080491280512
F-2.8473645789435817
F2.133246566058327
F0.39039738235561705
F2.5847379602946914
F-4.640752974386149
F4.365030516883696
F-6.875778286480105
F8.984371230752245
F-8.381803942152262
F5.880382669869515
F-3.8464086533938597
F7.063379861914283
F-6.467462030999014
F4.00127910115133
F-7.099390098513312
F9.399159032682126
F-6.14328067065093
F1.2855471003367747
F-2.2221682167276544
F4.991589488152451
F-4.436739516854833
F1.7420173191429504
F0.5603965421456346
F0.047175508295208016
F0.04786382781563661
F2.9037855476037513
F-5.042919948489423
F4.615061468375008
F4.168059668394709
F-4.992987791357015
F-1.109245644546676
F0.055115101572214435
F-2.922123262832155
F2.3525238760568645
F3.6496523895927093
F-2.217046031137341
F5.505786781962102
F-13.74963564952682
F5.761584542841534
F2.002485327581306
F0.06117326822330951
F0.06195784287645107
F-3.051494436158574
F5.48161560557136
F1.6494151293360497
F3.3481683929080606
F-11.75728925605858
F3.3322683619646583
F1.544457919209779
F6.541251824412032
F-11.134787713471814
F3.1932926847905967
F-1.5866272260539311
F12.277651300082704
F-6.14442655752927
F0.8701233597354116
F1.0773131916758842
F-6.539350514079186
F1.5607548874689228
F4.399871294591937
F1.0747105735219438
F-10.082947479446112
F10.902106848815897
F4.0504274250011205
F-6.627766916782058
F-1.815863114019484
F0.09121734137662244
F3.593796494306431
F4.84439983676123
F-5.8008992146018805
F1.6480443327946674
F12.077026416746119
F0.180656654970752
F-15.073025480333806
F2.9202936453337647
F6.134521008771812
F5.303809015948794
F-2.2115270414804704
F-8.13452815063416
F9.095083427802566
F3.9549997297198356
F-3.061304746449293
F3.0363116299600352
F-2.097537099814967
F-4.651274280163864
F18.43508372117754
F-8.203148108088657
F3.1418034877502468
F-4.484102998745131
F-2.0767665465602514
F8.141073116172581
F-8.087876401718258
F12.138410656285215
F-17.52356995642193
F7.307339721516104
F6.944183367719871
F0.4955672693232397
F-11.732626440611742
F12.310683528658883
F-13.794367599574455
F-7.460334134182612
F8.319143351564096
F16.054483605591642
F-19.64745933420691
F-5.358501263667747
F1.6316101913497085
F8.646583016309682
F-9.320614082611884
F-5.004624187905586
F8.546074655632674
F3.6046196041101575
F0.23078082636618585
F4.654888549868571
F6.589081152047758
F-24.314633096209345
F19.94813673337388
F-13.397748722996452
F6.808405156357993
F3.2663265394601435
F7.549849136412888
F-13.895879406685776
F5.726127612781344
F6.543121612048677
F-4.247253551261303
F-1.741120588888746
F-4.435143358281935
F2.7513595195379663
F-2.4219339512267486
F2.752291530200176
F2.3712888598777613
F-4.520101041795034
F12.328456071555594
F-7.256829655125045
F-11.431367908478483
F7.425889403446483
F-0.15055170127204834
F-7.234343045146623
F2.6942510369639714
F-7.616618767872471
F4.7715033832942355
F-4.885578631311781
F-15.56573434840872
F14.290726897478532
F0.03751852283992329
F-21.000751477808006
F-8.511179218335304
F19.65223321304053
F4.914877267138111
F-8.313672161084481
F-3.4282950447162976
F4.853732014800092
F-8.425908862551264
F-6.780622723501294
F9.999171497628852
F-11.268967097123404
F12.120379537498161
F-15.438479780967244
F4.922701929827266
F-5.142003852801897
F17.409166720422107
F-17.831548755499465
F-3.6638622575070623
F2.7614821084534076
F1.700039889818768
F2.164725576764906
F-17.98758912534262
F5.8823396418269605
F8.90564268807258
F10.294304581570392
F-11.047853437715494
F6.184112271511841
F-13.67329316961358
F8.205039599806565
F13.45650588033146
F-12.217981057007128
F3.46135460227401
F0.7518216524192672
F-16.174401461705955
F3.325258265494281
F6.6335775409403235
F11.25904558259943
F-10.983303100056661
F-0.3372875009435104
F7.1677769040959705
F-12.698366241805445
F-3.2001654553703585
F15.611331248566609
F-10.922925045721012
F-13.369054195536092
F11.539352063677702
F1.2191102385443033
F-11.586119049901487
F0.9285968648401843
F3.3518581024890675
F5.491317533542623
F3.617271411232328
F-13.675904990166837
F-3.4706428790628685
F3.13970556450745
F-1.0561094415908752
F12.334803397898202
F2.1675576106591534
F-12.106609081124299
F-5.755055310979836
F25.54487499214997
F-0.5251754985555777
F-15.516360301466532
F6.2072555897348005
F11.155864901782696
F4.973390731279929
F-20.865570840732406
F4.364249835804062
F15.33617516147337
F-0.11959715573551243
F-14.170276688295878
F2.606268097060595
F17.756219680222994
F-8.606727343673661
F9.93928444542411
F17.328218434215138
F-35.48124281207385
F-7.754225616033553
F24.20070077467924
F20.598488275567043
F-16.389852149817468
F-39.001688257234505
F9.10960209119161
F40.1216032495171
F-18.10261518328947
F-23.918040867210618
F13.076404133224877
F13.710936187479259
F-1.0323077352219785
F-21.54438141596605
F16.323581716173877
F3.9900813067791323
F-4.887049242379274
F-9.615917572873117
F9.900139240763115
F27.807760577381742
F-14.8841925026113
F-13.958148266220729
F15.649134125109859
F-16.806089496252916
F-29.47885791839581
F14.836251186219588
F30.58499952585492
F7.225864397470061
F-23.128379941398755
F-7.508233585529274
F23.825513166893025
F-8.679278912682577
F-40.06559707758165
F32.40086545006442
F31.921219227662046
F-40.19131333053445
F7.632739005933447
F-16.5379881182601
F7.541214186892278
F25.262378110905164
F-50.96487418398424
F32.991608994474475
F9.151507730571668
F-35.30806500053881
F16.660440474068473
F8.571068063651524
F25.2208251470968
F-31.43826753311937
F-31.085405363186013
F18.98805165342061
F14.902733897676306
F29.88509028004448
F-26.97061822049037
F6.971042732002386
F-5.9400434371269535
F-30.98787173989475
F18.038171909372004
F27.87101374780298
F-15.625890494329116
F-14.240082229202258
F21.914770909659048
F-1.2233653148580839
F28.957029195868696
F-32.700835062970256
F-37.63218919759814
F41.20639175298151
F-7.5415462528478745
F-22.46842649706533
F18.15288627569996
F22.42707617313955
F10.016796671346663
F-6.754329122202102
F-51.54562702278962
F21.18711456212869
F3.4033961924439984
F-6.794174479248055
F19.06178948818275
F-9.860214218757104
F31.88884317257054
F-78.71021368472717
F72.4834577916511
F-4.553751633232453
F-30.154323574624282
F37.56551591188752
F-41.65110095088297
F-7.344177515069038
F-17.479178022581056
F52.87384810069244
F23.772365218913176
F-10.256872343737475
F-37.497111796083715
F-21.277327933702193
F64.65818674570481
F-53.84139274949255
F21.698486044867796
F-49.797547041506505
F42.10383233452128
F51.11228047838678
F-41.98165243296771
F3.343537681805713
F-29.457735586052525
F45.371269636290556
F-20.458643655999392
F-20.931714385976353
F15.28385804252329
F21.27401392428502
F11.069834924651701
F-42.4900656460963
F-49.157578402960816
F13.287526526800804
F99.06680430720544
F-31.73066251200272
F-39.50666956201386
F16.54432813681799
F-0.1873731902983965
F-11.297445376103315
F4.046013773189234
F-9.220368104364086
F-39.032528577471616
F74.61893761533021
F15.264061858384746
F-36.40086387253162
F-0.201405852644838
F-0.20242689462297422
F22.507845060615097
F4.6087964005337625
F-23.19205699294985
F12.524331056169617
F-32.24653933336127
F55.773616194890515
F-50.908248897191896
F-9.02697373007501
F31.170320210347228
F20.795242919839087
F-22.64932094026131
F-30.16135537380833
F20.35666912615081
F-0.19601694148475737
F-0.19700092679371534
F11.668944322527341
F-1.7755654184253515
F-32.11315768547332
F33.48906955065761
F10.533178904235985
F-46.38180700605772
F-10.517414914293292
F68.40511841585094
F-23.775675946446412
F-34.50493323672317
F10.644285000452061
F-36.94241180284699
F-26.05872283802254
F22.40485412454601
F23.090064729237767
F22.83028219233271
F101.7957679964189
F-99.11653189644046
F12.429212862057733
F13.04444663916893
F-25.331286115715656
F-37.862509681044806
F7.060652624152651
F110.66744697611726
F-121.95832792383743
F67.52867601727452
F-26.885635177656674
F-38.076459236825315
F-22.539278225551556
F114.54303566105416
F-55.85559115203539
F-0.25923951290590813
F-0.26065824613409416
F12.491499337447356
F55.388303499396585
F-2.5655818773301533
F-123.49560021869348
F45.818600189365945
F-31.375412686295824
F24.78712123704262
F61.35334183548749
F14.610871145440992
F6.301163712702932
F-49.1989906458079
F59.31962020184343
F26.99631218100172
F-69.30727313822253
F40.276176420481285
F-51.59282607482474
F6.904573732792004
F-67.16867004525933
F50.833297548030735
F86.40126489907959
F-124.74163651391586
F47.66103097777279
F-4.520175623324843
F-80.69956016145159
F83.39301179026934
F23.72071629932722
F-36.219429891633084
F40.41109852101027
F59.672420080132156
F-135.63216903793167
F64.36768091458335
F36.54974153366966
F-128.38302782074197
F0.0855713210306607
F116.45867093347361
F14.947947106901523
F14.57819582680747
F-78.93302268555442
F13.448258311538714
F41.4613259824473
F2.074185451526119
F27.48489447284635
F48.67899536271878
F-99.08252311910843
F87.68145376648937
F3.3690098565736317
F16.586799582552555
F48.959090046716106
F4.4810724581187635
F-35.43393474069943
F-105.85617151711192
F106.97036424323959
F23.53719736752184
F-75.7244776330806
F63.39048878748344
F24.91978259127437
F-105.65664407744636
F-32.81431870346607
F76.65465951829307
F61.26197298834876
F-117.88312189877641
F102.06157099380256
F-23.20790147633219
F-71.5343631487991
F62.94630796170978
F-139.17712093870423
F92.51196378167168
F133.49242551617704
F-129.11885950038106
F-92.28918371399084
F25.46309213694385
F-68.2365563100917
F149.73769468597493
F-26.35754149767709
F72.84782993977151
F-153.16252325501355
F56.075116399584545
F0.5328248238349533
F0.5368526947949942
F-13.064576309701064
F-45.64396520539396
F85.77165425857247
F95.18182017534035
F-117.82699791499321
F14.460634507547805
F20.81774608878516
F-183.99385992896927
F77.63252899399427
F337.38838602975113
F-209.86743309034642
F-127.64710622919208
F12.163891371379915
F51.08084091164678
F-39.40010952259792
F119.38336466953584
F-38.60723928726984
F98.41317115405708
F-188.47740965593667
F27.08555916554469
F-130.1428712798506
F366.7095952112324
F-265.39578648524093
F70.16045883051859
F-12.582655518662106
F-59.31081414099273
F71.9499186060544
F0.6616064264268997
F0.6665198598135109
F-12.327475902092333
F-75.85081207991686
F37.36929869804517
F178.86244252251095
F-281.5526971151558
F166.4702726274007
F67.22823364234398
F-89.62525629156458
F-67.56013773124963
F92.48104530265783
F57.80382036408392
F-162.70398005364373
F35.507542876470666
F213.81858443296292
F-237.55944259276453
F108.37550046394965
F126.77967400622028
F-295.6475342454315
F311.3942550766131
F-247.86453702701328
F76.52644917675791
F-33.91789405711139
F398.709757519293
F-424.57787455450733
F148.37190096371356
F-254.80608163740848
F184.1314629993151
F-22.040188706068584
F-168.6607937687385
F200.34431805261784
F63.16112653774071
F-256.62765591935784
F292.06539405320115
F-31.101023857214024
F-273.8953242416638
F185.82845094968295
F-91.18369505222195
F68.7534920592611
F-269.7594066069471
F390.4998836550848
F-197.30346709501353
F104.0844525910137
F-20.688033184200236
F-194.85330028476812
F203.33997386505112
F-112.0327329382176
F8.003114927776988
F99.97159271009818
F-121.90138076396946
F-119.41310850066792
F4.714859374352462
F118.34580235311344
F104.81899147363497
F-108.48393043310114
F107.95036255138656
F-122.03969972225927
F-28.256139431226604
F-351.6703045372334
F246.21070967942444
F242.3350681041843
F-8.406849115454726
F-100.33293521647026
F328.9608179738742
F-718.5074889143003
F731.2154509619351
F-627.3231971899156
F400.0471714735026
F241.65410079417876
F-392.2402068972986
F-4.563114973287111
F3.824145872659544
F110.59298580760723
F-536.4143660920125
F545.925145728605
F5.812386128175786
F124.89966224642646
F-418.8536015703586
F134.16076365692314
F6.495504369378247
F290.0216290427527
F-14.899688581803233
F-576.0993462742737
F590.6270617044531
F-8.137635310843823
F-448.5518361062275
F304.4333766981541
F152.2039305108453
F-152.56669585604334
F3.1660409611283686
F159.8828304101195
F2.459838739346221
F4.4891282985059435
F-323.6861647257422
F160.97791429258046
F-1.2872087255569822
F-165.97352895806102
F333.24876879396965
F-166.3625602941931
F-170.99112466581795
F337.47743093137984
F-514.0326864596193
F516.5197680707921
F-350.7892821063029
tp27
abag0
(g7
g2
Ntp28
Rp29
(lp30
F100.0
aF20.0
a(ta(F0.0
F0.0014880952380952382
F0.0029761904761904765
F0.004464285714285714
F0.005952380952380953
F0.007440476190476191
F0.008928571428571428
F0.010416666666666668
F0.011904761904761906
F0.013392857142857142
F0.014880952380952382
F0.01636904761904762
F0.017857142857142856
F0.019345238095238096
F0.020833333333333336
F0.022321428571428572
F0.02380952380952381
F0.02529761904761905
F0.026785714285714284
F0.028273809523809524
F0.029761904761904764
F0.03125
F0.03273809523809524
F0.03422619047619048
F0.03571428571428571
F0.03720238095238095
F0.03869047619047619
F0.04017857142857143
F0.04166666666666667
F0.043154761904761904
F0.044642857142857144
F0.046130952380952384
F0.04761904761904762
F0.04910714285714286
F0.0505952380952381
F0.05208333333333334
F0.05357142857142857
F0.05505952380952381
F0.05654761904761905
F0.05803571428571429
F0.05952380952380953
F0.06101190476190477
F0.0625
F0.06398809523809523
F0.06547619047619048
F0.06696428571428571
F0.06845238095238096
F0.06994047619047619
F0.07142857142857142
F0.07291666666666667
F0.0744047619047619
F0.07589285714285715
F0.07738095238095238
F0.07886904761904763
F0.08035714285714286
F0.08184523809523811
F0.08333333333333334
F0.08482142857142859
F0.08630952380952381
F0.08779761904761904
F0.08928571428571429
F0.09077380952380952
F0.09226190476190477
F0.09375
F0.09523809523809525
F0.09672619047619048
F0.09821428571428573
F0.09970238095238096
F0.1011904761904762
F0.10267857142857144
F0.10416666666666669
F0.1056547619047619
F0.10714285714285714
F0.10863095238095238
F0.11011904761904762
F0.11160714285714286
F0.1130952380952381
F0.11458333333333334
F0.11607142857142858
F0.11755952380952382
F0.11904761904761905
F0.1205357142857143
F0.12202380952380953
F0.12351190476190478
F0.125
F0.12648809523809523
F0.12797619047619047
F0.12946428571428573
F0.13095238095238096
F0.1324404761904762
F0.13392857142857142
F0.13541666666666669
F0.13690476190476192
F0.13839285714285715
F0.13988095238095238
F0.14136904761904764
F0.14285714285714285
F0.1443452380952381
F0.14583333333333334
F0.14732142857142858
F0.1488095238095238
F0.15029761904761904
F0.1517857142857143
F0.15327380952380953
F0.15476190476190477
F0.15625
F0.15773809523809526
F0.1592261904761905
F0.16071428571428573
F0.16220238095238096
F0.16369047619047622
F0.16517857142857145
F0.16666666666666669
F0.16815476190476192
F0.16964285714285718
F0.1711309523809524
F0.17261904761904762
F0.17410714285714285
F0.17559523809523808
F0.17708333333333334
F0.17857142857142858
F0.1800595238095238
F0.18154761904761904
F0.1830357142857143
F0.18452380952380953
F0.18601190476190477
F0.1875
F0.18898809523809526
F0.1904761904761905
F0.19196428571428573
F0.19345238095238096
F0.1949404761904762
F0.19642857142857145
F0.19791666666666669
F0.19940476190476192
F0.20089285714285715
F0.2023809523809524
F0.20386904761904764
F0.20535714285714288
F0.2068452380952381
F0.20833333333333337
F0.20982142857142858
F0.2113095238095238
F0.21279761904761904
F0.21428571428571427
F0.21577380952380953
F0.21726190476190477
F0.21875
F0.22023809523809523
F0.2217261904761905
F0.22321428571428573
F0.22470238095238096
F0.2261904761904762
F0.22767857142857145
F0.22916666666666669
F0.23065476190476192
F0.23214285714285715
F0.2336309523809524
F0.23511904761904764
F0.23660714285714288
F0.2380952380952381
F0.23958333333333337
F0.2410714285714286
F0.24255952380952384
F0.24404761904761907
F0.2455357142857143
F0.24702380952380956
F0.24851190476190477
F0.25
F0.25148809523809523
F0.25297619047619047
F0.2544642857142857
F0.25595238095238093
F0.2574404761904762
F0.25892857142857145
F0.2604166666666667
F0.2619047619047619
F0.26339285714285715
F0.2648809523809524
F0.2663690476190476
F0.26785714285714285
F0.26934523809523814
F0.27083333333333337
F0.2723214285714286
F0.27380952380952384
F0.27529761904761907
F0.2767857142857143
F0.27827380952380953
F0.27976190476190477
F0.28125000000000006
F0.2827380952380953
F0.2842261904761905
F0.2857142857142857
F0.28720238095238093
F0.2886904761904762
F0.29017857142857145
F0.2916666666666667
F0.2931547619047619
F0.29464285714285715
F0.2961309523809524
F0.2976190476190476
F0.2991071428571429
F0.3005952380952381
F0.30208333333333337
F0.3035714285714286
F0.3050595238095238
F0.30654761904761907
F0.30803571428571425
F0.30952380952380953
F0.31101190476190477
F0.3125
F0.31398809523809523
F0.3154761904761905
F0.3169642857142857
F0.318452380952381
F0.31994047619047616
F0.32142857142857145
F0.3229166666666667
F0.3244047619047619
F0.32589285714285715
F0.32738095238095244
F0.3288690476190476
F0.3303571428571429
F0.3318452380952381
F0.33333333333333337
F0.3348214285714286
F0.33630952380952384
F0.33779761904761907
F0.33928571428571436
F0.34077380952380953
F0.3422619047619048
F0.34375
F0.34523809523809523
F0.3467261904761905
F0.3482142857142857
F0.349702380952381
F0.35119047619047616
F0.35267857142857145
F0.3541666666666667
F0.3556547619047619
F0.35714285714285715
F0.35863095238095244
F0.3601190476190476
F0.3616071428571429
F0.3630952380952381
F0.36458333333333337
F0.3660714285714286
F0.36755952380952384
F0.36904761904761907
F0.37053571428571436
F0.37202380952380953
F0.3735119047619048
F0.375
F0.3764880952380953
F0.3779761904761905
F0.37946428571428575
F0.380952380952381
F0.38244047619047616
F0.38392857142857145
F0.3854166666666667
F0.3869047619047619
F0.38839285714285715
F0.3898809523809524
F0.3913690476190476
F0.3928571428571429
F0.3943452380952381
F0.39583333333333337
F0.3973214285714286
F0.39880952380952384
F0.40029761904761907
F0.4017857142857143
F0.40327380952380953
F0.4047619047619048
F0.40625
F0.4077380952380953
F0.40922619047619047
F0.41071428571428575
F0.412202380952381
F0.4136904761904762
F0.41517857142857145
F0.41666666666666674
F0.4181547619047619
F0.41964285714285715
F0.4211309523809524
F0.4226190476190476
F0.4241071428571429
F0.4255952380952381
F0.42708333333333337
F0.42857142857142855
F0.43005952380952384
F0.43154761904761907
F0.4330357142857143
F0.43452380952380953
F0.4360119047619048
F0.4375
F0.4389880952380953
F0.44047619047619047
F0.44196428571428575
F0.443452380952381
F0.4449404761904762
F0.44642857142857145
F0.44791666666666674
F0.4494047619047619
F0.4508928571428572
F0.4523809523809524
F0.45386904761904767
F0.4553571428571429
F0.45684523809523814
F0.45833333333333337
F0.45982142857142855
F0.46130952380952384
F0.46279761904761907
F0.4642857142857143
F0.46577380952380953
F0.4672619047619048
F0.46875
F0.4702380952380953
F0.47172619047619047
F0.47321428571428575
F0.474702380952381
F0.4761904761904762
F0.47767857142857145
F0.47916666666666674
F0.4806547619047619
F0.4821428571428572
F0.4836309523809524
F0.48511904761904767
F0.4866071428571429
F0.48809523809523814
F0.48958333333333337
F0.4910714285714286
F0.49255952380952384
F0.4940476190476191
F0.4955357142857143
F0.49702380952380953
F0.49851190476190477
F0.5
F0.5014880952380952
F0.5029761904761905
F0.5044642857142857
F0.5059523809523809
F0.5074404761904763
F0.5089285714285714
F0.5104166666666667
F0.5119047619047619
F0.5133928571428572
F0.5148809523809524
F0.5163690476190477
F0.5178571428571429
F0.5193452380952381
F0.5208333333333334
F0.5223214285714286
F0.5238095238095238
F0.5252976190476191
F0.5267857142857143
F0.5282738095238095
F0.5297619047619048
F0.5312500000000001
F0.5327380952380952
F0.5342261904761905
F0.5357142857142857
F0.5372023809523809
F0.5386904761904763
F0.5401785714285714
F0.5416666666666667
F0.5431547619047619
F0.5446428571428572
F0.5461309523809524
F0.5476190476190477
F0.5491071428571429
F0.5505952380952381
F0.5520833333333334
F0.5535714285714286
F0.5550595238095238
F0.5565476190476191
F0.5580357142857143
F0.5595238095238095
F0.5610119047619048
F0.5625000000000001
F0.5639880952380952
F0.5654761904761906
F0.5669642857142857
F0.568452380952381
F0.5699404761904763
F0.5714285714285714
F0.5729166666666667
F0.5744047619047619
F0.5758928571428572
F0.5773809523809524
F0.5788690476190477
F0.5803571428571429
F0.5818452380952381
F0.5833333333333334
F0.5848214285714286
F0.5863095238095238
F0.5877976190476191
F0.5892857142857143
F0.5907738095238095
F0.5922619047619048
F0.59375
F0.5952380952380952
F0.5967261904761905
F0.5982142857142858
F0.599702380952381
F0.6011904761904762
F0.6026785714285714
F0.6041666666666667
F0.605654761904762
F0.6071428571428572
F0.6086309523809523
F0.6101190476190476
F0.6116071428571429
F0.6130952380952381
F0.6145833333333334
F0.6160714285714285
F0.6175595238095238
F0.6190476190476191
F0.6205357142857143
F0.6220238095238095
F0.6235119047619049
F0.625
F0.6264880952380952
F0.6279761904761905
F0.6294642857142858
F0.630952380952381
F0.6324404761904762
F0.6339285714285714
F0.6354166666666667
F0.636904761904762
F0.6383928571428572
F0.6398809523809523
F0.6413690476190477
F0.6428571428571429
F0.6443452380952381
F0.6458333333333334
F0.6473214285714287
F0.6488095238095238
F0.6502976190476191
F0.6517857142857143
F0.6532738095238095
F0.6547619047619049
F0.65625
F0.6577380952380952
F0.6592261904761905
F0.6607142857142858
F0.662202380952381
F0.6636904761904762
F0.6651785714285714
F0.6666666666666667
F0.668154761904762
F0.6696428571428572
F0.6711309523809523
F0.6726190476190477
F0.6741071428571429
F0.6755952380952381
F0.6770833333333334
F0.6785714285714287
F0.6800595238095238
F0.6815476190476191
F0.6830357142857143
F0.6845238095238096
F0.6860119047619049
F0.6875
F0.6889880952380952
F0.6904761904761905
F0.6919642857142858
F0.693452380952381
F0.6949404761904762
F0.6964285714285714
F0.6979166666666667
F0.699404761904762
F0.7008928571428572
F0.7023809523809523
F0.7038690476190477
F0.7053571428571429
F0.7068452380952381
F0.7083333333333334
F0.7098214285714287
F0.7113095238095238
F0.7127976190476191
F0.7142857142857143
F0.7157738095238096
F0.7172619047619049
F0.71875
F0.7202380952380952
F0.7217261904761906
F0.7232142857142858
F0.724702380952381
F0.7261904761904762
F0.7276785714285714
F0.7291666666666667
F0.730654761904762
F0.7321428571428572
F0.7336309523809523
F0.7351190476190477
F0.7366071428571429
F0.7380952380952381
F0.7395833333333334
F0.7410714285714287
F0.7425595238095238
F0.7440476190476191
F0.7455357142857143
F0.7470238095238096
F0.7485119047619049
F0.75
F0.7514880952380952
F0.7529761904761906
F0.7544642857142858
F0.755952380952381
F0.7574404761904762
F0.7589285714285715
F0.7604166666666667
F0.761904761904762
F0.7633928571428572
F0.7648809523809523
F0.7663690476190477
F0.7678571428571429
F0.7693452380952381
F0.7708333333333334
F0.7723214285714286
F0.7738095238095238
F0.7752976190476191
F0.7767857142857143
F0.7782738095238096
F0.7797619047619048
F0.78125
F0.7827380952380952
F0.7842261904761906
F0.7857142857142858
F0.787202380952381
F0.7886904761904762
F0.7901785714285715
F0.7916666666666667
F0.793154761904762
F0.7946428571428572
F0.7961309523809524
F0.7976190476190477
F0.7991071428571429
F0.8005952380952381
F0.8020833333333334
F0.8035714285714286
F0.8050595238095238
F0.8065476190476191
F0.8080357142857143
F0.8095238095238096
F0.8110119047619048
F0.8125
F0.8139880952380952
F0.8154761904761906
F0.8169642857142858
F0.8184523809523809
F0.8199404761904762
F0.8214285714285715
F0.8229166666666667
F0.824404761904762
F0.8258928571428571
F0.8273809523809524
F0.8288690476190477
F0.8303571428571429
F0.8318452380952381
F0.8333333333333335
F0.8348214285714286
F0.8363095238095238
F0.8377976190476191
F0.8392857142857143
F0.8407738095238096
F0.8422619047619048
F0.84375
F0.8452380952380952
F0.8467261904761906
F0.8482142857142858
F0.8497023809523809
F0.8511904761904762
F0.8526785714285715
F0.8541666666666667
F0.855654761904762
F0.8571428571428571
F0.8586309523809524
F0.8601190476190477
F0.8616071428571429
F0.8630952380952381
F0.8645833333333335
F0.8660714285714286
F0.8675595238095238
F0.8690476190476191
F0.8705357142857144
F0.8720238095238096
F0.8735119047619048
F0.875
F0.8764880952380952
F0.8779761904761906
F0.8794642857142858
F0.8809523809523809
F0.8824404761904762
F0.8839285714285715
F0.8854166666666667
F0.886904761904762
F0.8883928571428571
F0.8898809523809524
F0.8913690476190477
F0.8928571428571429
F0.8943452380952381
F0.8958333333333335
F0.8973214285714286
F0.8988095238095238
F0.9002976190476191
F0.9017857142857144
F0.9032738095238096
F0.9047619047619048
F0.90625
F0.9077380952380953
F0.9092261904761906
F0.9107142857142858
F0.9122023809523809
F0.9136904761904763
F0.9151785714285715
F0.9166666666666667
F0.918154761904762
F0.9196428571428571
F0.9211309523809524
F0.9226190476190477
F0.9241071428571429
F0.9255952380952381
F0.9270833333333335
F0.9285714285714286
F0.9300595238095238
F0.9315476190476191
F0.9330357142857144
F0.9345238095238096
F0.9360119047619048
F0.9375
F0.9389880952380953
F0.9404761904761906
F0.9419642857142858
F0.9434523809523809
F0.9449404761904763
F0.9464285714285715
F0.9479166666666667
F0.949404761904762
F0.9508928571428573
F0.9523809523809524
F0.9538690476190477
F0.9553571428571429
F0.9568452380952381
F0.9583333333333335
F0.9598214285714286
F0.9613095238095238
F0.9627976190476191
F0.9642857142857144
F0.9657738095238096
F0.9672619047619048
F0.96875
F0.9702380952380953
F0.9717261904761906
F0.9732142857142858
F0.9747023809523809
F0.9761904761904763
F0.9776785714285715
F0.9791666666666667
F0.980654761904762
F0.9821428571428572
F0.9836309523809524
F0.9851190476190477
F0.9866071428571429
F0.9880952380952382
F0.9895833333333334
F0.9910714285714286
F0.9925595238095238
F0.9940476190476191
F0.9955357142857144
F0.9970238095238095
F0.9985119047619048
F1.0
tp31
a(F0.0
F-0.00011075786506501292
F-1.7509154532330933
F3.4188628652019895
F-1.615348551767123
F3.4759119148398185
F-6.85901117476142
F3.183526025179491
F1.967738271863528
F-3.552446700766895
F1.6579185756320787
F0.06662898648339752
F-0.0013805317099471767
F-0.0015007827556095096
F-0.0016218607036061156
F-0.0017437712401035166
F-1.8930062756231647
F5.554636421991821
F-7.235451762702982
F7.134705385069225
F-3.3027038340703956
F-2.175023943962079
F-0.16442693600797922
F3.8480752003397694
F0.33300727682045383
F-1.9574563498850106
F-4.105462497579384
F5.628597963053276
F-1.574611666541797
F1.8685509236644913
F-5.849512156361728
F5.565582666520852
F-1.5933800628496486
F1.9221236397596317
F-6.024408280281086
F5.690424188531828
F-3.6740307975322732
F3.8353414200368063
F0.3801191578081815
F-4.1840743599304675
F3.8424900726046416
F-3.8787747064988607
F3.895169164853821
F-8.24374040058864
F9.896608095758518
F1.1337767772316347
F-13.088733631010731
F13.93744654204842
F-9.337523142426342
F5.3869994523752744
F-1.4786317485002485
F-2.5215050759234177
F6.5495000357357585
F-8.30232070789579
F3.405707075311047
F5.164814177894345
F-6.289473280587828
F1.427378417162126
F-2.093815903415842
F2.0098724841763476
F0.2770903100515943
F-0.008941371816499415
F-0.00911361472883297
F2.4132632389849964
F-2.0506496246476087
F-0.3282040841502128
F-4.938379471276614
F9.02580791675379
F-3.3822635759727055
F-3.250003518179689
F2.0819362280692024
F2.8703948199032303
F-4.658154370563616
F6.835375043391589
F-3.8367974637075495
F1.7973134372781872
F-9.8873713498264
F11.047179472860561
F-0.27875372635077467
F-10.893129773082133
F8.627916208329266
F-0.8982599380380364
F-0.44389292028532584
F-0.012339976154824408
F2.6988804848206125
F-4.9198258976215925
F7.170355103129341
F-6.645043968266837
F1.2279191471719995
F6.0157288306360295
F-4.41842854855073
F7.414632841752675
F-1.0534379081054113
F-3.1369352483546846
F-3.260049669827519
F8.00739133198525
F-3.8024653940636095
F1.8810767017400707
F-5.064649808776932
F1.7879441655639075
F3.5952997774797284
F-13.966354535998112
F-0.3116465945637228
F9.358901235711876
F-1.085767940049328
F-0.626209932761964
F-0.006095306658586327
F-3.062030202277275
F2.31794475364543
F3.731051426322393
F-2.350260787316967
F-0.669957498081732
F3.107215025220951
F-8.533323063402616
F6.958357336607647
F-3.986903485938391
F1.5880401524375272
F-5.634244945384023
F1.4080671221901722
F7.1199281275547035
F-1.5889638311953225
F-0.7944214893462077
F-0.011322636665747494
F3.2755134836895645
F-8.97010566333618
F10.504201999229045
F-3.034999233419839
F-1.7380640867970891
F-6.763960954391913
F8.16150409623734
F2.7746849784698333
F-6.739933300763206
F18.739295273462375
F-25.015811411214482
F-2.04356529177737
F19.201413144618012
F1.623547152166765
F-18.25634533950601
F1.5001624115655332
F16.326171722255086
F-13.614775920427409
F1.841358376867599
F5.694340760102528
F-6.069700894573752
F8.611226151854153
F-3.758790317175272
F-2.2442244552702197
F3.705629903802964
F-6.195092539951634
F1.2704830857604625
F8.648905381551211
F2.7333802100171076
F-18.806324181098788
F12.697473276742139
F-1.3596249315799211
F-6.339915853782508
F2.4706816562876055
F9.071391817398597
F-8.907244799005058
F-4.102199187450525
F11.673934466437071
F-7.457011617886537
F3.6454610747216685
F-1.1141072112966914
F-5.361743133499712
F10.446724796617616
F-3.5078493193687814
F-2.8904624699921877
F8.197598038529312
F-4.942385215992128
F9.35127169513547
F-15.623578136336858
F16.921463672668548
F-6.690350236709586
F-6.36897159981824
F8.533767355148477
F-5.028709992806957
F1.0683081276572108
F-2.525399850407337
F2.7016359984077867
F6.124187921980913
F-10.890256060470449
F12.173473525722619
F-10.23038146225261
F1.6853037834593751
F-5.144550720018801
F9.674271908386423
F-7.7277249514549435
F3.345392690118472
F4.012914524846104
F-4.460784555661833
F-1.8833737080934883
F0.0075297125441511625
F-4.628554242354171
F2.4655596564843565
F2.0322566098014234
F0.005822105983496548
F-9.482152318650765
F4.975615335568044
F-0.5929405047441378
F12.087871547239876
F-12.348674107203083
F-4.415523349029714
F2.0731707549968585
F-0.2284113080421815
F9.646216094423414
F4.796269958361558
F-14.75138657385122
F-2.4251025224215734
F7.124267035312351
F7.36414923469645
F-7.268561828418453
F4.861679272901001
F0.1012751733721722
F-2.5019415074665052
F-5.182219266763157
F-2.784905703047192
F5.011042392465623
F2.5739510716239113
F-21.121665422221987
F9.659187937780526
F15.95853529819369
F3.044467421176724
F-5.169767940724986
F2.5862062790498523
F-2.386010895969387
F2.4974415833491466
F-7.547356020545986
F-11.783989238255069
F7.566013630841914
F0.501544783341644
F-8.882296223172371
F7.500322406371484
F-4.982753050370016
F15.673702923809296
F7.531999502956675
F-14.362835379319982
F-0.9958744657218206
F8.931056619461216
F-13.684617007996684
F-10.524845410201303
F10.927714681837474
F6.834902299359157
F5.792809820255109
F-7.932664420190474
F10.24320093818044
F-6.5655619210328195
F-11.065508313701578
F5.674302880879642
F3.6208117697807065
F-6.066586078553781
F-4.092482191108652
F17.951892674386166
F-12.39448412404967
F-3.901532941329606
F20.156584119688112
F2.347482922270728
F-22.53924412523443
F6.108013886685604
F6.164533432590719
F-4.142690195313288
F-0.03894314617599881
F-6.435677980679312
F8.259731577197563
F8.819841469996666
F-6.177603908320114
F-4.418636992397587
F-12.974141996105285
F9.774826622301328
F7.413166239598901
F-11.24229534463593
F8.273922751424971
F-3.6659824638647573
F3.4923101823534384
F9.858940962785937
F-6.387645083143793
F-11.763598871249332
F15.040767989219937
F8.86715175002969
F2.1694870571071454
F-21.91506303621113
F-0.3998637328951511
F8.84911756688042
F1.7097198331355168
F-1.392059616973437
F-5.377488457620984
F7.088732524467216
F-8.515769299456919
F-4.247744141934087
F5.530957565509592
F7.182756437409736
F-15.75217255091845
F11.064243190868922
F9.419839643830521
F-26.46609980867724
F9.509518729048562
F18.157489875131773
F-7.045788060752879
F-13.600718661909315
F23.415776247070063
F-4.095328256795255
F-33.08320592940399
F15.565402462030756
F12.037438570898612
F-6.574990897325432
F7.65645519394392
F-8.498014920555239
F1.730065967421027
F-9.490005561398386
F10.008660326165108
F-3.196057699738976
F-4.867408272335017
F5.472880433852898
F-6.65930886228083
F7.0833166491818185
F-0.046990901887108916
F-0.047424791133243334
F-8.093592209643619
F16.26581702285887
F-0.87073912588903
F-31.53385765946294
F24.42079870407637
F23.201806566512076
F-15.542534436066466
F-16.05396418569845
F16.081004401031567
F17.039743482851335
F-16.093169842420814
F-16.723655969243346
F16.613424677756452
F-16.598333817248474
F-9.30019679887997
F42.80771497514042
F-16.205564143529426
F-9.192125411060017
F9.19262366209629
F-0.36894980789571635
F-7.568621342023157
F7.360110508809191
F10.873653492757773
F7.655796275366671
F-5.3559894413828
F-11.734684414957531
F2.8509496548457127
F-11.502340006706323
F28.86044462323775
F-7.192892845080609
F-1.4809779224050466
F-6.43528970740386
F-3.4949563411124815
F4.483075450478495
F5.579996951850039
F5.657226977970336
F-32.7933595368789
F1.24620213565532
F26.050877969987756
F16.670493112408785
F-41.93696004079611
F7.40980963432971
F-14.964036575604654
F0.6468151881177524
F48.147351050434075
F-29.81281708983772
F-13.98234725976604
F30.937264820295052
F-14.155910345283916
F-29.034124731907585
F33.68991181333019
F-7.112015165231764
F-24.657783290546973
F28.670942001225306
F28.701102783635445
F-61.44514565324411
F-15.839772013314793
F34.07856925148116
F10.47808417442508
F36.64595129832135
F-59.6529003080289
F12.768012930628801
F24.940414706672637
F-1.1816491889832441
F-4.5388609199029055
F-43.456072183802426
F56.128653946675776
F-20.04682848317643
F-18.326105377595812
F3.759376880763205
F26.8388496219672
F-3.049622914321663
F-27.085973307812637
F38.63517046347432
F-65.51343738372456
F35.27936271305194
F20.758875321223623
F-36.95546619937725
F21.39042509402572
F58.68705861108973
F-73.90113778074183
F-33.30938765625993
F58.85101734023079
F-15.777808521370801
F-6.781589951740213
F24.416195032353333
F-36.365406854637065
F62.96214271401923
F-26.284784198527475
F-25.44808483644247
F48.81011656840917
F-57.29596580020751
F-3.647317476709464
F43.347999034051725
F-7.011726178375073
F-24.697878341421273
F-21.653740227854406
F83.96965543678405
F-40.642963790141316
F-26.969483730114572
F7.338772390103507
F14.584005529436247
F14.110079692114375
F-57.50139688295507
F51.3444862314153
F9.020701335798956
F-31.604860911210213
F2.2303641063407897
F29.9692784119108
F-8.726050168491478
F-14.079079625364487
F-28.615049709788874
F52.17781099829796
F-33.30038402472532
F13.565307347879427
F30.89359127427158
F-54.47719348229543
F9.940520021161495
F12.898515253622984
F45.482087948538336
F-57.81479179366103
F-23.635985469874743
F47.341765345726834
F36.042717124053425
F-108.14581027079403
F22.876095079605715
F60.29009621424544
F51.70793520629076
F-112.16969493158805
F38.2252924087916
F-39.336213075421576
F50.868103304780064
F-26.520783744084444
F52.438306508896886
F-11.579801790169066
F-13.390437782069778
F-36.04034373224875
F-60.437238828750075
F136.8351540872142
F-53.851409877144164
F12.629957000025385
F-8.854980831248234
F-73.77342178424855
F65.20580015855299
F23.723072111527216
F-95.57027790397034
F78.2037512790658
F0.25093540595588576
F121.24984299909026
F-183.93734893210032
F59.837897150757136
F-13.02819149770076
F7.32881817883632
F28.8603699399935
F-118.11997450684129
F118.7845996098241
F13.291207765376871
F-76.26762842738043
F103.08750487369883
F-77.36919699499985
F-6.999730799188211
F53.11235638311023
F-58.92160861520303
F-30.78932079843131
F103.02696062074521
F-11.805412360801892
F-21.026437525898082
F36.00134702838919
F1.0736157716658798
F-51.09519389460217
F-52.47418477167155
F173.65842171369843
F-150.35264079455655
F119.12076589195567
F-160.5882996439922
F101.86805657176566
F22.821001346401065
F-125.58921314620203
F48.44232986136755
F-11.607142983821108
F170.8037027332651
F-103.58236871023357
F-67.2206772914165
F40.0939811324373
F0.027987206330605058
F13.611380412730112
F2.5394217470322973
F-115.00919476151175
F95.01944931145543
F105.47261905463458
F-160.88932721414207
F106.03953785672468
F-166.28172119681574
F162.316433007058
F-16.90650485196786
F52.069978064868764
F-122.91574065691107
F58.98548502292424
F19.978112885637138
F-93.6747056978922
F-2.0063772867466487
F25.98295812079497
F82.43361770657074
F-47.656453289571054
F13.606966078303849
F36.86044312054249
F-76.29585827833449
F-47.763116960726975
F147.91291232011804
F-176.71982311603762
F142.87818577266367
F102.73567064807389
F-179.72833502177122
F64.42883096755733
F-133.23946007177202
F105.53751614959992
F0.016106798272799996
F0.016106798272799996
F13.706100347919111
F29.28503723614734
F-84.69697114340289
F72.92833218697724
F-133.37896863464806
F173.28010240193737
F-25.42388277405821
F-103.71372621449126
F31.08119154204201
F-81.50296738050915
F180.4125710524454
F-25.29617039007386
F-80.5947499303917
F143.83114271144743
F-130.0258144615635
F170.7936246639967
F-338.5173718426704
F188.13195905639546
F-13.516807499504646
F-39.26153804382639
F117.91267594894585
F-91.9228793750545
F-95.8358630698847
F201.41405508972204
F-11.694039013427327
F-66.98688643247665
F-12.906601967833748
F-44.95161466252117
F114.46263555781677
F-116.50099082004566
F158.01104640680552
F21.634409835152137
F-275.99958646490376
F81.62942710179854
F112.87634423698651
F160.44619734898953
F-347.4801158404681
F148.97250846727422
F0.016106798272799996
F-12.847659924948575
F-40.18912243644823
F184.44701930882263
F-264.37935507833095
F293.05889294941744
F-183.5717079775063
F-138.88904494585873
F148.24284700956852
F-46.5054759318515
F224.95432479011535
F-151.78977402154837
F61.77590747239199
F-159.0609121179698
F60.57110271715952
F-139.86169538105779
F260.7310158126994
F1.8624812578227292
F-6.555950023368133
F-137.8891075919739
F-283.08967314260946
F589.1069995473721
F-330.0186250351056
F232.97705205147184
F-339.2933825236142
F270.3343698693161
F-81.70848954710355
F62.38725438891259
F-245.8761340630201
F355.468727219082
F-292.80280777460877
F19.211574442783977
F200.06063668786217
F-18.274695716480007
F-193.21986459654838
F90.67053863867558
F-84.17454317485252
F208.46391296838476
F-16.70855170371751
F-224.06931411824672
F-72.45223091423037
F407.61391847502944
F-309.94075954970265
F221.3904528620844
F-17.19741891121132
F-231.77549303826697
F-80.56992969818502
F453.78624320886723
F-37.07660948581132
F-536.2996691368598
F549.3457195496082
F-451.51587527681835
F368.7624952605033
F70.09389406279264
F-674.2621448042419
F709.4207855131594
F-258.77082163144047
F-225.5870899758556
F370.8152515786672
F-12.237284482589734
F-227.04868875748937
F480.13928922387106
F-748.5533783521674
F508.13022707321653
F-121.62691811336038
F120.09368248337532
F-274.2347143722119
F-120.90506704311035
F407.28124647126856
F-2.8881929048396757
F-141.70491340184066
F-131.02587161428252
F263.60030152156975
F-409.2089124690351
F425.95821139183863
F-1.2894076070741072
F-153.47463308535123
F-276.24552667595094
F584.418880066033
F-155.752370227415
F-438.14286614373935
F443.1201975652045
F-294.00145580369133
F455.41651207455965
F-631.9009940921867
F8.832758673517741
F624.1264281583407
F-311.1315165945631
F325.8179630792063
F-487.1513929177913
F-1.719759996069112
F162.7433530512007
F168.83584202059498
F3.1308978792129234
F-509.097505681084
F680.3421738357333
F-511.4401136529578
F-2.162849474229482
F521.8390105103235
F-523.1221422503407
tp32
abag0
(g7
g2
Ntp33
Rp34
(lp35
F100.0
aF20.0
a(ta(F0.0
F0.0014880952380952382
F0.0029761904761904765
F0.004464285714285714
F0.005952380952380953
F0.007440476190476191
F0.008928571428571428
F0.010416666666666668
F0.011904761904761906
F0.013392857142857142
F0.014880952380952382
F0.01636904761904762
F0.017857142857142856
F0.019345238095238096
F0.020833333333333336
F0.022321428571428572
F0.02380952380952381
F0.02529761904761905
F0.026785714285714284
F0.028273809523809524
F0.029761904761904764
F0.03125
F0.03273809523809524
F0.03422619047619048
F0.03571428571428571
F0.03720238095238095
F0.03869047619047619
F0.04017857142857143
F0.04166666666666667
F0.043154761904761904
F0.044642857142857144
F0.046130952380952384
F0.04761904761904762
F0.04910714285714286
F0.0505952380952381
F0.05208333333333334
F0.05357142857142857
F0.05505952380952381
F0.05654761904761905
F0.05803571428571429
F0.05952380952380953
F0.06101190476190477
F0.0625
F0.06398809523809523
F0.06547619047619048
F0.06696428571428571
F0.06845238095238096
F0.06994047619047619
F0.07142857142857142
F0.07291666666666667
F0.0744047619047619
F0.07589285714285715
F0.07738095238095238
F0.07886904761904763
F0.08035714285714286
F0.08184523809523811
F0.08333333333333334
F0.08482142857142859
F0.08630952380952381
F0.08779761904761904
F0.08928571428571429
F0.09077380952380952
F0.09226190476190477
F0.09375
F0.09523809523809525
F0.09672619047619048
F0.09821428571428573
F0.09970238095238096
F0.1011904761904762
F0.10267857142857144
F0.10416666666666669
F0.1056547619047619
F0.10714285714285714
F0.10863095238095238
F0.11011904761904762
F0.11160714285714286
F0.1130952380952381
F0.11458333333333334
F0.11607142857142858
F0.11755952380952382
F0.11904761904761905
F0.1205357142857143
F0.12202380952380953
F0.12351190476190478
F0.125
F0.12648809523809523
F0.12797619047619047
F0.12946428571428573
F0.13095238095238096
F0.1324404761904762
F0.13392857142857142
F0.13541666666666669
F0.13690476190476192
F0.13839285714285715
F0.13988095238095238
F0.14136904761904764
F0.14285714285714285
F0.1443452380952381
F0.14583333333333334
F0.14732142857142858
F0.1488095238095238
F0.15029761904761904
F0.1517857142857143
F0.15327380952380953
F0.15476190476190477
F0.15625
F0.15773809523809526
F0.1592261904761905
F0.16071428571428573
F0.16220238095238096
F0.16369047619047622
F0.16517857142857145
F0.16666666666666669
F0.16815476190476192
F0.16964285714285718
F0.1711309523809524
F0.17261904761904762
F0.17410714285714285
F0.17559523809523808
F0.17708333333333334
F0.17857142857142858
F0.1800595238095238
F0.18154761904761904
F0.1830357142857143
F0.18452380952380953
F0.18601190476190477
F0.1875
F0.18898809523809526
F0.1904761904761905
F0.19196428571428573
F0.19345238095238096
F0.1949404761904762
F0.19642857142857145
F0.19791666666666669
F0.19940476190476192
F0.20089285714285715
F0.2023809523809524
F0.20386904761904764
F0.20535714285714288
F0.2068452380952381
F0.20833333333333337
F0.20982142857142858
F0.2113095238095238
F0.21279761904761904
F0.21428571428571427
F0.21577380952380953
F0.21726190476190477
F0.21875
F0.22023809523809523
F0.2217261904761905
F0.22321428571428573
F0.22470238095238096
F0.2261904761904762
F0.22767857142857145
F0.22916666666666669
F0.23065476190476192
F0.23214285714285715
F0.2336309523809524
F0.23511904761904764
F0.23660714285714288
F0.2380952380952381
F0.23958333333333337
F0.2410714285714286
F0.24255952380952384
F0.24404761904761907
F0.2455357142857143
F0.24702380952380956
F0.24851190476190477
F0.25
F0.25148809523809523
F0.25297619047619047
F0.2544642857142857
F0.25595238095238093
F0.2574404761904762
F0.25892857142857145
F0.2604166666666667
F0.2619047619047619
F0.26339285714285715
F0.2648809523809524
F0.2663690476190476
F0.26785714285714285
F0.26934523809523814
F0.27083333333333337
F0.2723214285714286
F0.27380952380952384
F0.27529761904761907
F0.2767857142857143
F0.27827380952380953
F0.27976190476190477
F0.28125000000000006
F0.2827380952380953
F0.2842261904761905
F0.2857142857142857
F0.28720238095238093
F0.2886904761904762
F0.29017857142857145
F0.2916666666666667
F0.2931547619047619
F0.29464285714285715
F0.2961309523809524
F0.2976190476190476
F0.2991071428571429
F0.3005952380952381
F0.30208333333333337
F0.3035714285714286
F0.3050595238095238
F0.30654761904761907
F0.30803571428571425
F0.30952380952380953
F0.31101190476190477
F0.3125
F0.31398809523809523
F0.3154761904761905
F0.3169642857142857
F0.318452380952381
F0.31994047619047616
F0.32142857142857145
F0.3229166666666667
F0.3244047619047619
F0.32589285714285715
F0.32738095238095244
F0.3288690476190476
F0.3303571428571429
F0.3318452380952381
F0.33333333333333337
F0.3348214285714286
F0.33630952380952384
F0.33779761904761907
F0.33928571428571436
F0.34077380952380953
F0.3422619047619048
F0.34375
F0.34523809523809523
F0.3467261904761905
F0.3482142857142857
F0.349702380952381
F0.35119047619047616
F0.35267857142857145
F0.3541666666666667
F0.3556547619047619
F0.35714285714285715
F0.35863095238095244
F0.3601190476190476
F0.3616071428571429
F0.3630952380952381
F0.36458333333333337
F0.3660714285714286
F0.36755952380952384
F0.36904761904761907
F0.37053571428571436
F0.37202380952380953
F0.3735119047619048
F0.375
F0.3764880952380953
F0.3779761904761905
F0.37946428571428575
F0.380952380952381
F0.38244047619047616
F0.38392857142857145
F0.3854166666666667
F0.3869047619047619
F0.38839285714285715
F0.3898809523809524
F0.3913690476190476
F0.3928571428571429
F0.3943452380952381
F0.39583333333333337
F0.3973214285714286
F0.39880952380952384
F0.40029761904761907
F0.4017857142857143
F0.40327380952380953
F0.4047619047619048
F0.40625
F0.4077380952380953
F0.40922619047619047
F0.41071428571428575
F0.412202380952381
F0.4136904761904762
F0.41517857142857145
F0.41666666666666674
F0.4181547619047619
F0.41964285714285715
F0.4211309523809524
F0.4226190476190476
F0.4241071428571429
F0.4255952380952381
F0.42708333333333337
F0.42857142857142855
F0.43005952380952384
F0.43154761904761907
F0.4330357142857143
F0.43452380952380953
F0.4360119047619048
F0.4375
F0.4389880952380953
F0.44047619047619047
F0.44196428571428575
F0.443452380952381
F0.4449404761904762
F0.44642857142857145
F0.44791666666666674
F0.4494047619047619
F0.4508928571428572
F0.4523809523809524
F0.45386904761904767
F0.4553571428571429
F0.45684523809523814
F0.45833333333333337
F0.45982142857142855
F0.46130952380952384
F0.46279761904761907
F0.4642857142857143
F0.46577380952380953
F0.4672619047619048
F0.46875
F0.4702380952380953
F0.47172619047619047
F0.47321428571428575
F0.474702380952381
F0.4761904761904762
F0.47767857142857145
F0.47916666666666674
F0.4806547619047619
F0.4821428571428572
F0.4836309523809524
F0.48511904761904767
F0.4866071428571429
F0.48809523809523814
F0.48958333333333337
F0.4910714285714286
F0.49255952380952384
F0.4940476190476191
F0.4955357142857143
F0.49702380952380953
F0.49851190476190477
F0.5
F0.5014880952380952
F0.5029761904761905
F0.5044642857142857
F0.5059523809523809
F0.5074404761904763
F0.5089285714285714
F0.5104166666666667
F0.5119047619047619
F0.5133928571428572
F0.5148809523809524
F0.5163690476190477
F0.5178571428571429
F0.5193452380952381
F0.5208333333333334
F0.5223214285714286
F0.5238095238095238
F0.5252976190476191
F0.5267857142857143
F0.5282738095238095
F0.5297619047619048
F0.5312500000000001
F0.5327380952380952
F0.5342261904761905
F0.5357142857142857
F0.5372023809523809
F0.5386904761904763
F0.5401785714285714
F0.5416666666666667
F0.5431547619047619
F0.5446428571428572
F0.5461309523809524
F0.5476190476190477
F0.5491071428571429
F0.5505952380952381
F0.5520833333333334
F0.5535714285714286
F0.5550595238095238
F0.5565476190476191
F0.5580357142857143
F0.5595238095238095
F0.5610119047619048
F0.5625000000000001
F0.5639880952380952
F0.5654761904761906
F0.5669642857142857
F0.568452380952381
F0.5699404761904763
F0.5714285714285714
F0.5729166666666667
F0.5744047619047619
F0.5758928571428572
F0.5773809523809524
F0.5788690476190477
F0.5803571428571429
F0.5818452380952381
F0.5833333333333334
F0.5848214285714286
F0.5863095238095238
F0.5877976190476191
F0.5892857142857143
F0.5907738095238095
F0.5922619047619048
F0.59375
F0.5952380952380952
F0.5967261904761905
F0.5982142857142858
F0.599702380952381
F0.6011904761904762
F0.6026785714285714
F0.6041666666666667
F0.605654761904762
F0.6071428571428572
F0.6086309523809523
F0.6101190476190476
F0.6116071428571429
F0.6130952380952381
F0.6145833333333334
F0.6160714285714285
F0.6175595238095238
F0.6190476190476191
F0.6205357142857143
F0.6220238095238095
F0.6235119047619049
F0.625
F0.6264880952380952
F0.6279761904761905
F0.6294642857142858
F0.630952380952381
F0.6324404761904762
F0.6339285714285714
F0.6354166666666667
F0.636904761904762
F0.6383928571428572
F0.6398809523809523
F0.6413690476190477
F0.6428571428571429
F0.6443452380952381
F0.6458333333333334
F0.6473214285714287
F0.6488095238095238
F0.6502976190476191
F0.6517857142857143
F0.6532738095238095
F0.6547619047619049
F0.65625
F0.6577380952380952
F0.6592261904761905
F0.6607142857142858
F0.662202380952381
F0.6636904761904762
F0.6651785714285714
F0.6666666666666667
F0.668154761904762
F0.6696428571428572
F0.6711309523809523
F0.6726190476190477
F0.6741071428571429
F0.6755952380952381
F0.6770833333333334
F0.6785714285714287
F0.6800595238095238
F0.6815476190476191
F0.6830357142857143
F0.6845238095238096
F0.6860119047619049
F0.6875
F0.6889880952380952
F0.6904761904761905
F0.6919642857142858
F0.693452380952381
F0.6949404761904762
F0.6964285714285714
F0.6979166666666667
F0.699404761904762
F0.7008928571428572
F0.7023809523809523
F0.7038690476190477
F0.7053571428571429
F0.7068452380952381
F0.7083333333333334
F0.7098214285714287
F0.7113095238095238
F0.7127976190476191
F0.7142857142857143
F0.7157738095238096
F0.7172619047619049
F0.71875
F0.7202380952380952
F0.7217261904761906
F0.7232142857142858
F0.724702380952381
F0.7261904761904762
F0.7276785714285714
F0.7291666666666667
F0.730654761904762
F0.7321428571428572
F0.7336309523809523
F0.7351190476190477
F0.7366071428571429
F0.7380952380952381
F0.7395833333333334
F0.7410714285714287
F0.7425595238095238
F0.7440476190476191
F0.7455357142857143
F0.7470238095238096
F0.7485119047619049
F0.75
F0.7514880952380952
F0.7529761904761906
F0.7544642857142858
F0.755952380952381
F0.7574404761904762
F0.7589285714285715
F0.7604166666666667
F0.761904761904762
F0.7633928571428572
F0.7648809523809523
F0.7663690476190477
F0.7678571428571429
F0.7693452380952381
F0.7708333333333334
F0.7723214285714286
F0.7738095238095238
F0.7752976190476191
F0.7767857142857143
F0.7782738095238096
F0.7797619047619048
F0.78125
F0.7827380952380952
F0.7842261904761906
F0.7857142857142858
F0.787202380952381
F0.7886904761904762
F0.7901785714285715
F0.7916666666666667
F0.793154761904762
F0.7946428571428572
F0.7961309523809524
F0.7976190476190477
F0.7991071428571429
F0.8005952380952381
F0.8020833333333334
F0.8035714285714286
F0.8050595238095238
F0.8065476190476191
F0.8080357142857143
F0.8095238095238096
F0.8110119047619048
F0.8125
F0.8139880952380952
F0.8154761904761906
F0.8169642857142858
F0.8184523809523809
F0.8199404761904762
F0.8214285714285715
F0.8229166666666667
F0.824404761904762
F0.8258928571428571
F0.8273809523809524
F0.8288690476190477
F0.8303571428571429
F0.8318452380952381
F0.8333333333333335
F0.8348214285714286
F0.8363095238095238
F0.8377976190476191
F0.8392857142857143
F0.8407738095238096
F0.8422619047619048
F0.84375
F0.8452380952380952
F0.8467261904761906
F0.8482142857142858
F0.8497023809523809
F0.8511904761904762
F0.8526785714285715
F0.8541666666666667
F0.855654761904762
F0.8571428571428571
F0.8586309523809524
F0.8601190476190477
F0.8616071428571429
F0.8630952380952381
F0.8645833333333335
F0.8660714285714286
F0.8675595238095238
F0.8690476190476191
F0.8705357142857144
F0.8720238095238096
F0.8735119047619048
F0.875
F0.8764880952380952
F0.8779761904761906
F0.8794642857142858
F0.8809523809523809
F0.8824404761904762
F0.8839285714285715
F0.8854166666666667
F0.886904761904762
F0.8883928571428571
F0.8898809523809524
F0.8913690476190477
F0.8928571428571429
F0.8943452380952381
F0.8958333333333335
F0.8973214285714286
F0.8988095238095238
F0.9002976190476191
F0.9017857142857144
F0.9032738095238096
F0.9047619047619048
F0.90625
F0.9077380952380953
F0.9092261904761906
F0.9107142857142858
F0.9122023809523809
F0.9136904761904763
F0.9151785714285715
F0.9166666666666667
F0.918154761904762
F0.9196428571428571
F0.9211309523809524
F0.9226190476190477
F0.9241071428571429
F0.9255952380952381
F0.9270833333333335
F0.9285714285714286
F0.9300595238095238
F0.9315476190476191
F0.9330357142857144
F0.9345238095238096
F0.9360119047619048
F0.9375
F0.9389880952380953
F0.9404761904761906
F0.9419642857142858
F0.9434523809523809
F0.9449404761904763
F0.9464285714285715
F0.9479166666666667
F0.949404761904762
F0.9508928571428573
F0.9523809523809524
F0.9538690476190477
F0.9553571428571429
F0.9568452380952381
F0.9583333333333335
F0.9598214285714286
F0.9613095238095238
F0.9627976190476191
F0.9642857142857144
F0.9657738095238096
F0.9672619047619048
F0.96875
F0.9702380952380953
F0.9717261904761906
F0.9732142857142858
F0.9747023809523809
F0.9761904761904763
F0.9776785714285715
F0.9791666666666667
F0.980654761904762
F0.9821428571428572
F0.9836309523809524
F0.9851190476190477
F0.9866071428571429
F0.9880952380952382
F0.9895833333333334
F0.9910714285714286
F0.9925595238095238
F0.9940476190476191
F0.9955357142857144
F0.9970238095238095
F0.9985119047619048
F1.0
tp36
a(F0.0
F-1.759873218851133
F1.6817367678705968
F3.5666016556995417
F-3.344826833320934
F-3.639642977140425
F10.426663297456296
F-11.982824212155506
F4.876230421251857
F-1.6739419185899318
F-0.12866379457341415
F3.646280881592904
F-3.544764220229726
F5.406255931579454
F-1.53700192865766
F-5.701369753030928
F9.093982127020105
F-14.598495417597107
F12.310272210809948
F-1.0965719278305797
F1.8531864596206675
F-11.436843164113602
F6.931099113332933
F12.098301209274366
F-20.479842244611465
F10.20889848121776
F-5.2040904811273645
F9.523430931108388
F-9.302677801605572
F3.2443771958786884
F2.313614086060228
F-3.925764799865677
F1.723271254985484
F0.11302742900348742
F4.171016525290976
F-12.164755913303207
F19.804552349544384
F-19.15948398462044
F6.5618152437768
F-1.4737080977759724
F8.30679266326583
F-7.677531607873
F3.477675763580003
F-10.43323392348916
F11.774585654803113
F-5.244139091194096
F10.348658919235543
F-9.766258884029705
F-3.4595352444154157
F6.326139730255245
F-3.7677845509454575
F1.7026379417422721
F0.2111991475314714
F-2.3188192519015205
F1.9254951065733075
F0.2397626960192678
F2.3022144070069337
F5.052657443916253
F-13.500476824568494
F7.585063831843863
F1.1765575635860581
F-7.141790214821096
F3.7370163865842896
F5.408738293946641
F-9.00497008720018
F0.9889147303500743
F5.1301233124471795
F3.116140924302755
F-9.366564545441223
F5.832077068783701
F-3.933119625549686
F9.298944012718085
F-5.991531116658746
F-8.78685488202413
F6.247643495602801
F-1.469036218293552
F4.653929730324779
F-1.7633900831524647
F-3.0396838118826346
F7.282775865736231
F-11.836664007310727
F10.84369970867465
F-8.383291861924
F-1.9712821648942682
F2.4164143248836685
F-2.3971704637336044
F-0.6935830743882533
F5.21308986166351
F-4.597807806886773
F4.2758511908812835
F-7.409086814697424
F0.8981352650695233
F11.533353509678008
F-11.902144419506595
F-0.2402802864182197
F3.125256991026314
F3.249876922875054
F-16.87805673513418
F7.601505697267858
F1.9391408619708272
F5.60123340908495
F1.0694770666242814
F2.883837656350857
F-11.339891911064608
F6.146068464990905
F-7.2883662179251925
F12.875131977865905
F-8.949059417746486
F0.21805351576819118
F12.756228256416847
F-6.461935228507018
F-2.096275282302859
F9.234503091771693
F-10.14753372220512
F3.1510926773854977
F1.5015937610148629
F-3.1948476844554157
F-10.40200674590832
F6.824307538643018
F5.463197749037113
F-5.719824868122757
F4.701085725263626
F-4.934230438321753
F11.268800842713729
F-6.339640682726633
F-9.29887276605615
F14.705169788403106
F-8.992148650626156
F-0.34561026350730356
F0.7822219458411519
F6.697551013393549
F-8.357164094471885
F7.350427212137278
F-0.5574483304244726
F-7.924887365270333
F8.372031044750946
F-7.556287075976362
F0.32876537761993435
F4.419607629371933
F-6.157926054396679
F4.913100398357011
F-1.5724160970967431
F-4.804499435516079
F2.2913882127958165
F0.9381953492896037
F7.194634690351066
F2.437468914842526
F-18.56650765291444
F1.2951972156436253
F5.7226278802565895
F15.994356723287476
F-17.32946754750131
F-7.804815975850759
F14.951970667598927
F-2.7199418628643848
F-6.486293469015939
F6.224824855189053
F-9.217666990311525
F11.380553729637326
F-2.5201790226749217
F-2.812762617417872
F3.79742799078834
F-6.625164162998982
F-6.800449527003237
F13.502565935771269
F-5.784651037452727
F-0.6845423578299356
F1.260732439771359
F8.028976380260831
F7.313275775174405
F-14.833392925802087
F-2.285935424924709
F9.744501687671187
F-17.78691905111294
F12.66727237429842
F-4.724647992486695
F12.022215155722972
F-14.815431557755376
F-8.683156614328787
F3.763618139154504
F-2.94729100725472
F6.328391856653427
F-9.931635448837486
F11.801080262342458
F6.9903882827630435
F-13.386693291279439
F34.494079129378505
F-36.826287175915986
F3.888619674055733
F11.315748051900087
F-13.724420528146217
F2.6103325339132994
F-0.8257767270147188
F20.779689412285602
F-17.387061373203554
F5.987119954254949
F-1.1145602597356776
F-4.346135863909285
F-4.976097711923202
F-7.407930526424311
F6.921322302751106
F8.845166751151611
F-2.673854490389419
F-12.237510793282226
F4.686544032712944
F9.179265853845742
F-7.716603913464838
F19.803758762650972
F2.294220921513583
F-29.59469952308504
F12.172710806134997
F-2.565511816472528
F7.165877891649825
F-12.777514483360086
F9.823474127978809
F-5.2593009335245755
F2.304266957019005
F-5.374300632223925
F-0.45965468946795746
F2.3559419237702284
F4.964858244324201
F-7.841830595271609
F9.86621320252084
F-7.503118685923508
F-14.371017177317096
F18.15509220764537
F0.6145591730320293
F-0.6441042363054978
F-18.8496219694851
F14.539410746660577
F4.025030787099092
F-0.7850315973908119
F3.073403792429712
F5.472896690623832
F-7.886677082528609
F-6.6314891822797986
F-6.004958784350178
F24.63638429483885
F-11.394179566826498
F-17.193306142620987
F39.70565882999162
F-15.408996826674176
F-24.61460041406457
F11.133112229961188
F1.0677320636910892
F2.0275799351693897
F45.32383985299051
F-21.105617495080537
F7.015118039875667
F-1.0239924732171686
F9.68777630838311
F-1.627549295527075
F-23.012019602616093
F10.619053772545234
F18.52640068601085
F-0.6017026516561881
F-9.322654127443984
F40.11611106167747
F-25.342462318786254
F-11.600125562091476
F30.499346277313638
F-27.501384144137358
F0.22293735001156398
F11.840248786755716
F3.1803590615132915
F-0.6737530796948257
F3.196813546288711
F18.48530093587555
F-27.465014169728942
F-20.682177801918407
F18.20353279648762
F10.341779479317536
F-12.007586714359672
F-15.629025503947357
F22.117090619157434
F-5.707949145294479
F-12.632075890541293
F-8.249642465405897
F3.5082180856370098
F-9.623955425333103
F-2.062185996647259
F-10.320156831729731
F-9.371929852174958
F-2.2706915889598567
F-20.216714466623877
F30.21623075008113
F-24.257272731599542
F-2.589734505306721
F18.26618602183944
F-33.60536087770911
F17.25019589526778
F-15.410502068711256
F-0.2979098406325293
F6.405570913103451
F2.405402828408351
F-4.941432747340405
F-19.486868418200967
F12.92022706112931
F18.511970633161972
F13.014419847693043
F-31.74994759360358
F-3.344456509931409
F17.179822342892628
F-22.78740868086686
F15.22237747563647
F49.13841756614785
F-56.53592782994675
F-15.456398662960368
F62.1717000239241
F-32.78839520831267
F-3.9510041369284776
F26.745464964248274
F16.349470950463832
F22.159456754511993
F-38.7361563028174
F-13.360891999213992
F46.14875679328075
F-17.083336952932306
F-29.630519854249233
F23.313376336025513
F7.717337319719659
F-15.832188457669137
F-8.026147478315721
F7.860949111637949
F-0.22079423890121933
F-8.330887874406756
F24.495815760456296
F-32.80977007270209
F-34.687640197480796
F32.48373950736876
F42.00507625100381
F-41.908530079922876
F-27.37598482519077
F16.8928902393958
F15.442610577946335
F10.335032938111107
F-37.201882748613144
F25.287749670210218
F-7.811117680960613
F-11.32835030482183
F9.30004879813606
F-19.342749967922096
F-1.7958078117213385
F17.288726649879326
F-8.758540112969545
F-11.890235632295273
F8.695195192710456
F-19.246206936006583
F14.53815510056797
F40.00570865387754
F-36.434990500707066
F-43.329528226477294
F25.813441392133274
F12.117541486342784
F-4.454444075546692
F11.51515411315807
F16.178668767573768
F-4.560707566657325
F-35.81422324412244
F9.766515605948296
F36.63008146327922
F-1.2035762079402528
F-39.600792292068846
F22.375864615273017
F47.77944026843765
F21.83687306220294
F-27.398448006935148
F-82.79265322787005
F-38.596164795522874
F140.48246693015446
F-41.856887029499674
F-69.70925363197789
F43.5970076193666
F15.275880893182167
F-13.335120690904832
F-0.6319770845593645
F19.458187762342003
F-3.4479320544246623
F-30.62962831877028
F22.454950624106964
F3.879669192186684
F-34.92363756546142
F-9.04554336066625
F16.74207830909954
F-5.040794941353346
F23.841832081112802
F-6.625059487471063
F11.844408729413068
F-3.752106568214228
F-59.0419951824787
F43.63695513480006
F9.863821473663615
F-6.013523404482728
F-10.859671726088957
F20.189238404782145
F-16.22516946310306
F-0.7405395767217915
F10.079857280006575
F-5.749369139910717
F9.635761438447284
F12.081543512003169
F-72.86786628358173
F36.24337075046522
F56.130703123829846
F-43.18923405410584
F-32.68793332187267
F50.11800072878818
F-109.54789431618036
F84.44739832569782
F64.53577305610996
F-35.54638054966115
F-81.52159760288089
F27.47223222371288
F62.6722354231324
F-2.555998508907733
F-77.00802009959146
F71.89801494154156
F-50.27614503825551
F48.04907505353162
F39.67988126519082
F-82.02924541447682
F65.35045802189751
F-71.72842965610174
F-10.19098916559011
F19.372146104981642
F10.692174419723075
F21.079893948432133
F-35.88556174111283
F-41.35583306551989
F76.7010177660855
F-5.624357469847698
F-96.64075011916503
F100.16229062614332
F6.93569123391741
F-76.38271569790984
F66.58594263109634
F-11.884444740839513
F25.606757629041184
F32.62694969847362
F-80.4261420032578
F59.31096521562178
F13.401376581021367
F37.52584027836485
F-83.90598235355345
F11.717244203510754
F51.19937353315158
F-36.50029137387761
F64.45063792928596
F40.54552082542523
F-74.01198040869171
F14.750973371385466
F2.965566312749909
F-1.2310878676472121
F21.383607223328905
F-73.95667557724
F196.15728769856716
F-104.24496756838694
F15.387492178571382
F55.90173610188158
F26.115293687565824
F-17.939670986544222
F111.74194057917819
F-54.04819057662768
F14.687678809858514
F-74.20537994570053
F94.09499795423082
F22.275889367256635
F24.900109591321563
F14.764135374972474
F50.77790171411195
F-127.31514005377547
F-13.952108837804412
F11.09881633723722
F-83.73202479564455
F-89.07079138106317
F-51.441433147054504
F32.138343601069536
F0.10972726966607683
F-26.50878495411261
F-94.24353752208773
F-7.96109060135856
F131.39914962325557
F-78.64675661796137
F42.0599853401461
F-31.63890516453571
F92.59313551579152
F-35.141493701471624
F13.794630510811478
F23.25500159845055
F-49.35776764651527
F-11.028916091213684
F35.636385020536
F-102.58554832126893
F92.10721970298749
F99.11373775170387
F-138.9261688787364
F79.50718499628108
F93.17633412513914
F-76.69527348011592
F2.148016885432905
F-12.121739005037522
F-80.03051607445663
F-60.53253984936031
F182.1166447283871
F-82.70751513191578
F13.679201296053467
F57.62418293588281
F59.78912899995784
F-20.877705680696643
F-164.22336537745423
F150.25263222922771
F-74.1424525364821
F73.78943663062996
F81.43850455013842
F-96.1548615847709
F-172.07381483735853
F44.433531008677264
F25.974334903934345
F95.15134062864476
F16.41308554637181
F36.94486184962868
F-59.191715094321346
F-48.24479600053446
F13.924300456251853
F37.848923618257196
F-77.14528621251537
F-76.06374257245795
F115.23333275896948
F52.7743636057707
F-38.81871216056987
F-145.57876201491294
F50.8321803405285
F25.55432034273047
F122.28049700672342
F30.85117530062892
F-135.5796424197063
F-72.06120171418358
F153.95444651088724
F-81.76028823240624
F-77.10287309272488
F173.51965433658296
F-25.18305168815079
F-89.87719234671043
F105.12544630674658
F-71.50327251798207
F-35.01691170654257
F109.07082031981048
F-46.11709078586896
F62.39460585506429
F-38.22855486776429
F-174.9044211833585
F46.89343199909619
F-13.932600428491288
F244.86573353137766
F-74.71108187572241
F-64.06221786475949
F0.29455912341305035
F-12.79653955598151
F-55.38988302019032
F53.4596088982466
F-28.138079011306743
F193.6223178811743
F-104.41383979316622
F-172.21099459549333
F186.30592726067246
F-131.20819322908335
F98.63616231316348
F95.02286338580957
F-266.79431368724477
F145.87148577233134
F0.2981671833542806
F13.344102070355538
F38.07236434036967
F-216.55777404094817
F111.5870514922827
F235.15773604044958
F-46.35138851964963
F-315.29093261599314
F45.78233695480518
F296.3645842753329
F-159.04963201849006
F12.427418840819904
F59.68524589488174
F-153.24212737861393
F70.03834577510403
F-61.43686830641812
F135.0390532146618
F-235.52707742256138
F183.4044021546657
F52.58131757923327
F-263.2197957645022
F13.411647432631458
F166.97305298931676
F-103.43283192307126
F-71.84436226437772
F180.96941287908578
F-11.517902499866265
F-71.92444190179687
F154.84941118995096
F-228.50575315382048
F432.84558118563336
F-393.89611095917354
F-67.17302322649869
F292.9600274778342
F-19.0538633429626
F-189.0718414623666
F110.41806126761927
F103.90067096413718
F3.1929510325861012
F-17.478802944950242
F-187.41313131309855
F169.9304940187076
F-398.7614246206878
F308.252012493187
F-93.3266882669718
F211.46590775422243
F-77.37536961506913
F294.88528553685944
F-440.8068090106178
F15.360923390847521
F198.6806305079694
F-317.3710297677631
F327.3260981600915
F-231.07700129625974
F9.306242756465641
F241.19033740366373
F2.423028699814544
F-4.4658509650010005
F-119.20474413354395
F-8.158618108693446
F-151.73400304893278
F-346.9730272222003
F508.60513539620564
F241.10501065759817
F-243.40065065432248
F123.61542123893015
F-143.88417713868267
F-255.67814374081246
F131.54948261130184
F145.89480550021537
F257.2599078013443
F-254.23209173667865
F248.27378266729437
F-681.9410417660762
F141.2464752394257
F414.34815432167807
F-139.1673007496451
F0.06941263065999981
F5.3123248361658
F131.2782836499366
F-429.16979972454055
F289.3911423109385
F-4.694622386507774
F-147.17382546604435
F152.19692955722613
F158.89844285097075
F153.13121840643336
F-308.0664537837309
F-152.4953522988306
F309.02349296059344
F-313.4850000283629
F319.54301268811076
F-316.061861884425
F647.8075650650247
F-985.5608408772564
F825.9795539904621
F-666.3867475242372
F332.3912077415082
F172.7347398030157
F-172.29953835805037
F-344.75181436736796
F516.6040150237959
F-172.3324779973272
tp37
abag0
(g7
g2
Ntp38
Rp39
(lp40
F100.0
aF20.0
a(ta(F0.0
F0.0014880952380952382
F0.0029761904761904765
F0.004464285714285714
F0.005952380952380953
F0.007440476190476191
F0.008928571428571428
F0.010416666666666668
F0.011904761904761906
F0.013392857142857142
F0.014880952380952382
F0.01636904761904762
F0.017857142857142856
F0.019345238095238096
F0.020833333333333336
F0.022321428571428572
F0.02380952380952381
F0.02529761904761905
F0.026785714285714284
F0.028273809523809524
F0.029761904761904764
F0.03125
F0.03273809523809524
F0.03422619047619048
F0.03571428571428571
F0.03720238095238095
F0.03869047619047619
F0.04017857142857143
F0.04166666666666667
F0.043154761904761904
F0.044642857142857144
F0.046130952380952384
F0.04761904761904762
F0.04910714285714286
F0.0505952380952381
F0.05208333333333334
F0.05357142857142857
F0.05505952380952381
F0.05654761904761905
F0.05803571428571429
F0.05952380952380953
F0.06101190476190477
F0.0625
F0.06398809523809523
F0.06547619047619048
F0.06696428571428571
F0.06845238095238096
F0.06994047619047619
F0.07142857142857142
F0.07291666666666667
F0.0744047619047619
F0.07589285714285715
F0.07738095238095238
F0.07886904761904763
F0.08035714285714286
F0.08184523809523811
F0.08333333333333334
F0.08482142857142859
F0.08630952380952381
F0.08779761904761904
F0.08928571428571429
F0.09077380952380952
F0.09226190476190477
F0.09375
F0.09523809523809525
F0.09672619047619048
F0.09821428571428573
F0.09970238095238096
F0.1011904761904762
F0.10267857142857144
F0.10416666666666669
F0.1056547619047619
F0.10714285714285714
F0.10863095238095238
F0.11011904761904762
F0.11160714285714286
F0.1130952380952381
F0.11458333333333334
F0.11607142857142858
F0.11755952380952382
F0.11904761904761905
F0.1205357142857143
F0.12202380952380953
F0.12351190476190478
F0.125
F0.12648809523809523
F0.12797619047619047
F0.12946428571428573
F0.13095238095238096
F0.1324404761904762
F0.13392857142857142
F0.13541666666666669
F0.13690476190476192
F0.13839285714285715
F0.13988095238095238
F0.14136904761904764
F0.14285714285714285
F0.1443452380952381
F0.14583333333333334
F0.14732142857142858
F0.1488095238095238
F0.15029761904761904
F0.1517857142857143
F0.15327380952380953
F0.15476190476190477
F0.15625
F0.15773809523809526
F0.1592261904761905
F0.16071428571428573
F0.16220238095238096
F0.16369047619047622
F0.16517857142857145
F0.16666666666666669
F0.16815476190476192
F0.16964285714285718
F0.1711309523809524
F0.17261904761904762
F0.17410714285714285
F0.17559523809523808
F0.17708333333333334
F0.17857142857142858
F0.1800595238095238
F0.18154761904761904
F0.1830357142857143
F0.18452380952380953
F0.18601190476190477
F0.1875
F0.18898809523809526
F0.1904761904761905
F0.19196428571428573
F0.19345238095238096
F0.1949404761904762
F0.19642857142857145
F0.19791666666666669
F0.19940476190476192
F0.20089285714285715
F0.2023809523809524
F0.20386904761904764
F0.20535714285714288
F0.2068452380952381
F0.20833333333333337
F0.20982142857142858
F0.2113095238095238
F0.21279761904761904
F0.21428571428571427
F0.21577380952380953
F0.21726190476190477
F0.21875
F0.22023809523809523
F0.2217261904761905
F0.22321428571428573
F0.22470238095238096
F0.2261904761904762
F0.22767857142857145
F0.22916666666666669
F0.23065476190476192
F0.23214285714285715
F0.2336309523809524
F0.23511904761904764
F0.23660714285714288
F0.2380952380952381
F0.23958333333333337
F0.2410714285714286
F0.24255952380952384
F0.24404761904761907
F0.2455357142857143
F0.24702380952380956
F0.24851190476190477
F0.25
F0.25148809523809523
F0.25297619047619047
F0.2544642857142857
F0.25595238095238093
F0.2574404761904762
F0.25892857142857145
F0.2604166666666667
F0.2619047619047619
F0.26339285714285715
F0.2648809523809524
F0.2663690476190476
F0.26785714285714285
F0.26934523809523814
F0.27083333333333337
F0.2723214285714286
F0.27380952380952384
F0.27529761904761907
F0.2767857142857143
F0.27827380952380953
F0.27976190476190477
F0.28125000000000006
F0.2827380952380953
F0.2842261904761905
F0.2857142857142857
F0.28720238095238093
F0.2886904761904762
F0.29017857142857145
F0.2916666666666667
F0.2931547619047619
F0.29464285714285715
F0.2961309523809524
F0.2976190476190476
F0.2991071428571429
F0.3005952380952381
F0.30208333333333337
F0.3035714285714286
F0.3050595238095238
F0.30654761904761907
F0.30803571428571425
F0.30952380952380953
F0.31101190476190477
F0.3125
F0.31398809523809523
F0.3154761904761905
F0.3169642857142857
F0.318452380952381
F0.31994047619047616
F0.32142857142857145
F0.3229166666666667
F0.3244047619047619
F0.32589285714285715
F0.32738095238095244
F0.3288690476190476
F0.3303571428571429
F0.3318452380952381
F0.33333333333333337
F0.3348214285714286
F0.33630952380952384
F0.33779761904761907
F0.33928571428571436
F0.34077380952380953
F0.3422619047619048
F0.34375
F0.34523809523809523
F0.3467261904761905
F0.3482142857142857
F0.349702380952381
F0.35119047619047616
F0.35267857142857145
F0.3541666666666667
F0.3556547619047619
F0.35714285714285715
F0.35863095238095244
F0.3601190476190476
F0.3616071428571429
F0.3630952380952381
F0.36458333333333337
F0.3660714285714286
F0.36755952380952384
F0.36904761904761907
F0.37053571428571436
F0.37202380952380953
F0.3735119047619048
F0.375
F0.3764880952380953
F0.3779761904761905
F0.37946428571428575
F0.380952380952381
F0.38244047619047616
F0.38392857142857145
F0.3854166666666667
F0.3869047619047619
F0.38839285714285715
F0.3898809523809524
F0.3913690476190476
F0.3928571428571429
F0.3943452380952381
F0.39583333333333337
F0.3973214285714286
F0.39880952380952384
F0.40029761904761907
F0.4017857142857143
F0.40327380952380953
F0.4047619047619048
F0.40625
F0.4077380952380953
F0.40922619047619047
F0.41071428571428575
F0.412202380952381
F0.4136904761904762
F0.41517857142857145
F0.41666666666666674
F0.4181547619047619
F0.41964285714285715
F0.4211309523809524
F0.4226190476190476
F0.4241071428571429
F0.4255952380952381
F0.42708333333333337
F0.42857142857142855
F0.43005952380952384
F0.43154761904761907
F0.4330357142857143
F0.43452380952380953
F0.4360119047619048
F0.4375
F0.4389880952380953
F0.44047619047619047
F0.44196428571428575
F0.443452380952381
F0.4449404761904762
F0.44642857142857145
F0.44791666666666674
F0.4494047619047619
F0.4508928571428572
F0.4523809523809524
F0.45386904761904767
F0.4553571428571429
F0.45684523809523814
F0.45833333333333337
F0.45982142857142855
F0.46130952380952384
F0.46279761904761907
F0.4642857142857143
F0.46577380952380953
F0.4672619047619048
F0.46875
F0.4702380952380953
F0.47172619047619047
F0.47321428571428575
F0.474702380952381
F0.4761904761904762
F0.47767857142857145
F0.47916666666666674
F0.4806547619047619
F0.4821428571428572
F0.4836309523809524
F0.48511904761904767
F0.4866071428571429
F0.48809523809523814
F0.48958333333333337
F0.4910714285714286
F0.49255952380952384
F0.4940476190476191
F0.4955357142857143
F0.49702380952380953
F0.49851190476190477
F0.5
F0.5014880952380952
F0.5029761904761905
F0.5044642857142857
F0.5059523809523809
F0.5074404761904763
F0.5089285714285714
F0.5104166666666667
F0.5119047619047619
F0.5133928571428572
F0.5148809523809524
F0.5163690476190477
F0.5178571428571429
F0.5193452380952381
F0.5208333333333334
F0.5223214285714286
F0.5238095238095238
F0.5252976190476191
F0.5267857142857143
F0.5282738095238095
F0.5297619047619048
F0.5312500000000001
F0.5327380952380952
F0.5342261904761905
F0.5357142857142857
F0.5372023809523809
F0.5386904761904763
F0.5401785714285714
F0.5416666666666667
F0.5431547619047619
F0.5446428571428572
F0.5461309523809524
F0.5476190476190477
F0.5491071428571429
F0.5505952380952381
F0.5520833333333334
F0.5535714285714286
F0.5550595238095238
F0.5565476190476191
F0.5580357142857143
F0.5595238095238095
F0.5610119047619048
F0.5625000000000001
F0.5639880952380952
F0.5654761904761906
F0.5669642857142857
F0.568452380952381
F0.5699404761904763
F0.5714285714285714
F0.5729166666666667
F0.5744047619047619
F0.5758928571428572
F0.5773809523809524
F0.5788690476190477
F0.5803571428571429
F0.5818452380952381
F0.5833333333333334
F0.5848214285714286
F0.5863095238095238
F0.5877976190476191
F0.5892857142857143
F0.5907738095238095
F0.5922619047619048
F0.59375
F0.5952380952380952
F0.5967261904761905
F0.5982142857142858
F0.599702380952381
F0.6011904761904762
F0.6026785714285714
F0.6041666666666667
F0.605654761904762
F0.6071428571428572
F0.6086309523809523
F0.6101190476190476
F0.6116071428571429
F0.6130952380952381
F0.6145833333333334
F0.6160714285714285
F0.6175595238095238
F0.6190476190476191
F0.6205357142857143
F0.6220238095238095
F0.6235119047619049
F0.625
F0.6264880952380952
F0.6279761904761905
F0.6294642857142858
F0.630952380952381
F0.6324404761904762
F0.6339285714285714
F0.6354166666666667
F0.636904761904762
F0.6383928571428572
F0.6398809523809523
F0.6413690476190477
F0.6428571428571429
F0.6443452380952381
F0.6458333333333334
F0.6473214285714287
F0.6488095238095238
F0.6502976190476191
F0.6517857142857143
F0.6532738095238095
F0.6547619047619049
F0.65625
F0.6577380952380952
F0.6592261904761905
F0.6607142857142858
F0.662202380952381
F0.6636904761904762
F0.6651785714285714
F0.6666666666666667
F0.668154761904762
F0.6696428571428572
F0.6711309523809523
F0.6726190476190477
F0.6741071428571429
F0.6755952380952381
F0.6770833333333334
F0.6785714285714287
F0.6800595238095238
F0.6815476190476191
F0.6830357142857143
F0.6845238095238096
F0.6860119047619049
F0.6875
F0.6889880952380952
F0.6904761904761905
F0.6919642857142858
F0.693452380952381
F0.6949404761904762
F0.6964285714285714
F0.6979166666666667
F0.699404761904762
F0.7008928571428572
F0.7023809523809523
F0.7038690476190477
F0.7053571428571429
F0.7068452380952381
F0.7083333333333334
F0.7098214285714287
F0.7113095238095238
F0.7127976190476191
F0.7142857142857143
F0.7157738095238096
F0.7172619047619049
F0.71875
F0.7202380952380952
F0.7217261904761906
F0.7232142857142858
F0.724702380952381
F0.7261904761904762
F0.7276785714285714
F0.7291666666666667
F0.730654761904762
F0.7321428571428572
F0.7336309523809523
F0.7351190476190477
F0.7366071428571429
F0.7380952380952381
F0.7395833333333334
F0.7410714285714287
F0.7425595238095238
F0.7440476190476191
F0.7455357142857143
F0.7470238095238096
F0.7485119047619049
F0.75
F0.7514880952380952
F0.7529761904761906
F0.7544642857142858
F0.755952380952381
F0.7574404761904762
F0.7589285714285715
F0.7604166666666667
F0.761904761904762
F0.7633928571428572
F0.7648809523809523
F0.7663690476190477
F0.7678571428571429
F0.7693452380952381
F0.7708333333333334
F0.7723214285714286
F0.7738095238095238
F0.7752976190476191
F0.7767857142857143
F0.7782738095238096
F0.7797619047619048
F0.78125
F0.7827380952380952
F0.7842261904761906
F0.7857142857142858
F0.787202380952381
F0.7886904761904762
F0.7901785714285715
F0.7916666666666667
F0.793154761904762
F0.7946428571428572
F0.7961309523809524
F0.7976190476190477
F0.7991071428571429
F0.8005952380952381
F0.8020833333333334
F0.8035714285714286
F0.8050595238095238
F0.8065476190476191
F0.8080357142857143
F0.8095238095238096
F0.8110119047619048
F0.8125
F0.8139880952380952
F0.8154761904761906
F0.8169642857142858
F0.8184523809523809
F0.8199404761904762
F0.8214285714285715
F0.8229166666666667
F0.824404761904762
F0.8258928571428571
F0.8273809523809524
F0.8288690476190477
F0.8303571428571429
F0.8318452380952381
F0.8333333333333335
F0.8348214285714286
F0.8363095238095238
F0.8377976190476191
F0.8392857142857143
F0.8407738095238096
F0.8422619047619048
F0.84375
F0.8452380952380952
F0.8467261904761906
F0.8482142857142858
F0.8497023809523809
F0.8511904761904762
F0.8526785714285715
F0.8541666666666667
F0.855654761904762
F0.8571428571428571
F0.8586309523809524
F0.8601190476190477
F0.8616071428571429
F0.8630952380952381
F0.8645833333333335
F0.8660714285714286
F0.8675595238095238
F0.8690476190476191
F0.8705357142857144
F0.8720238095238096
F0.8735119047619048
F0.875
F0.8764880952380952
F0.8779761904761906
F0.8794642857142858
F0.8809523809523809
F0.8824404761904762
F0.8839285714285715
F0.8854166666666667
F0.886904761904762
F0.8883928571428571
F0.8898809523809524
F0.8913690476190477
F0.8928571428571429
F0.8943452380952381
F0.8958333333333335
F0.8973214285714286
F0.8988095238095238
F0.9002976190476191
F0.9017857142857144
F0.9032738095238096
F0.9047619047619048
F0.90625
F0.9077380952380953
F0.9092261904761906
F0.9107142857142858
F0.9122023809523809
F0.9136904761904763
F0.9151785714285715
F0.9166666666666667
F0.918154761904762
F0.9196428571428571
F0.9211309523809524
F0.9226190476190477
F0.9241071428571429
F0.9255952380952381
F0.9270833333333335
F0.9285714285714286
F0.9300595238095238
F0.9315476190476191
F0.9330357142857144
F0.9345238095238096
F0.9360119047619048
F0.9375
F0.9389880952380953
F0.9404761904761906
F0.9419642857142858
F0.9434523809523809
F0.9449404761904763
F0.9464285714285715
F0.9479166666666667
F0.949404761904762
F0.9508928571428573
F0.9523809523809524
F0.9538690476190477
F0.9553571428571429
F0.9568452380952381
F0.9583333333333335
F0.9598214285714286
F0.9613095238095238
F0.9627976190476191
F0.9642857142857144
F0.9657738095238096
F0.9672619047619048
F0.96875
F0.9702380952380953
F0.9717261904761906
F0.9732142857142858
F0.9747023809523809
F0.9761904761904763
F0.9776785714285715
F0.9791666666666667
F0.980654761904762
F0.9821428571428572
F0.9836309523809524
F0.9851190476190477
F0.9866071428571429
F0.9880952380952382
F0.9895833333333334
F0.9910714285714286
F0.9925595238095238
F0.9940476190476191
F0.9955357142857144
F0.9970238095238095
F0.9985119047619048
F1.0
tp41
a(F0.0
F3.5189501001387087
F-8.617151404824355
F10.186807193443531
F-8.385857458413376
F-0.35226913281061184
F5.1959480125746245
F0.3057453427091032
F0.03110447801089997
F-7.259323629455266
F8.777665266251383
F-3.25494845758941
F1.7288831120263972
F0.12257743525842477
F-3.692592631845127
F-0.20919289461936466
F1.838176348005357
F0.09096398086763241
F-1.9019372959072474
F3.6698545421509357
F0.276631252641965
F-1.864990860970134
F-4.031446873282821
F7.490054140142947
F-5.268562320047511
F5.505318638822275
F-9.455461699418661
F9.197132831970878
F-7.299219879781483
F5.386590259314512
F0.563083768911016
F-2.006798881227385
F-2.192124684161642
F1.831477457425069
F2.2723439908896785
F-3.9748461308818177
F1.7199794989304584
F2.3032789093525303
F-1.8929547616739342
F-0.16440945126414672
F0.007760988679982147
F-2.162816302928086
F-0.2343105914513757
F6.452070819193014
F-5.789574014036115
F3.7139823070419338
F-1.6973354892021835
F-2.4399006396538665
F1.93127100173514
F-2.0051229019430004
F1.9699718321255115
F2.523849028390146
F-1.9622857556011153
F-0.23848235218556318
F2.3303631464979437
F-1.9927132474470892
F-0.24700615567475817
F0.011562934332297662
F0.011800671988931855
F0.012040044440690963
F-2.363744701209415
F4.421439792127574
F-6.562216577067419
F6.250260611016399
F-1.4254304273535263
F2.1492495018524873
F-4.519829223743359
F1.7571173742883412
F0.3476099736430302
F-2.4926786297058605
F4.626110795829216
F0.796077372324349
F-4.988584503636575
F-0.7878516830523343
F5.060831657346353
F-4.313369447201471
F9.515815085907661
F-8.480902476328039
F0.8284628457497893
F0.47248943110221026
F-2.63009468365774
F7.461280636275089
F-9.175075016566861
F6.155816479704725
F-3.97517583653908
F1.74692210837539
F-2.254686272041396
F4.944122693235282
F1.0451682179880897
F-5.404041639391295
F10.068216687792022
F-14.488085972564463
F7.954322433116394
F2.167003679046325
F-8.366816572162257
F1.0242239913404514
F6.221298788794928
F-1.6512018647590658
F-0.5422086586934988
F2.9471815690523755
F-11.03696712046632
F15.077373369538977
F-16.938785050722796
F13.384819592410242
F-5.129066782465749
F4.073980353636064
F4.443257041893061
F-8.30971977727256
F-1.976845874369728
F2.967486114732839
F0.6995892278953463
F6.2535418212437595
F1.582041956388181
F-15.29961777600433
F5.4087177278466765
F-0.8942786061608504
F8.767806856805928
F-7.159871235677348
F0.8656921733361496
F4.0460781285356635
F-5.573106547771189
F4.84944840663358
F-4.784211931083086
F-1.727612595846787
F3.213290701113288
F-2.450261066783373
F5.761664627545364
F-1.525697020168904
F-4.195520564616188
F5.8236020042863
F5.33464354617394
F-9.088540665071124
F0.6121963628496896
F-9.451225002322595
F21.263979451759702
F-13.874401223542657
F1.0739695893719348
F-5.020748862267723
F4.746257667330411
F12.904075704557632
F-10.99322936217382
F3.0507771606342837
F-12.217474438330944
F17.13890430084678
F-3.9282581850146303
F-6.96690463393426
F2.470092806068903
F-2.5497380514493924
F6.22096878589572
F10.021597055650219
F-23.50268089183449
F9.907327257990014
F-1.3245056724568076
F-2.531007607524342
F3.7521428837829127
F9.008529160928191
F-4.924340556936617
F-6.404138730197844
F-1.3929954268946954
F15.720013263649964
F-14.05132812073289
F4.85424999380184
F-7.614782429671
F7.50311546603912
F8.560696341908828
F-10.241893350605938
F3.642706385175851
F-17.394215917966033
F12.582217771211619
F7.6920994125103235
F-3.964800395302202
F-1.464549203872102
F-4.131504197185231
F-1.7205661207658385
F4.153525619331389
F-2.637477959706101
F2.560889561166385
F-11.277388192415989
F29.247966163502603
F-29.28811327592242
F12.89445149132305
F8.051871065065088
F-14.780282695076792
F-1.1182508555426733
F6.078811025827867
F6.288116356255089
F-6.928398541858808
F14.272389183678635
F-23.67440860584254
F-14.095977768625977
F-4.673864803990992
F10.352140450938995
F0.9154335763252391
F-7.037834070963312
F1.8813994590217051
F15.519635766681118
F6.159880813425313
F0.021370636615267218
F4.76332465238708
F-2.410773905540572
F2.662035519065378
F-7.2204224737134375
F5.129603011670554
F-0.2547567643411557
F-2.183168144491168
F-4.904913817161379
F2.4948346124828245
F2.326027742273985
F4.99126394762391
F-2.3540012180488725
F-7.341942803188222
F2.2863910845920117
F-2.53458340780729
F12.646612081289739
F2.904743396193753
F-12.66726965824501
F-5.28227756749625
F10.26374009925299
F0.21393473383620418
F-7.8816634337761995
F7.696696340744706
F0.41031403429786334
F2.5946947856449234
F-12.977486166042175
F7.241525168081377
F3.349498296569256
F-2.802780543407167
F16.15894270420197
F-17.359122482663714
F-4.4926117099300305
F6.031719682041828
F-16.523858588524238
F23.44244129629948
F2.5085777792911066
F-14.885094165076607
F2.2508906127790094
F3.2409806923067452
F11.3939487346907
F-21.396518735631904
F-0.13014437381186192
F21.586075127854777
F-4.17659736394938
F-18.534623635432446
F4.419694343603927
F12.788021323460539
F3.9221706133449947
F0.32520318848582097
F-11.68197337943497
F-1.449564588242067
F3.7021173653161403
F-12.01609257342918
F-2.0035154167521543
F21.835315871244497
F-0.10437192933851033
F-7.702780883199588
F0.047433391268700754
F0.04791779093487233
F12.532527248080518
F-10.101109726776494
F-18.67847899539272
F-4.7531524404513235
F24.741575155953335
F11.218615913770726
F-23.181804848428552
F-0.5145068547374526
F8.6944496930698
F13.050480888963598
F-16.452867722045717
F0.9316596595775157
F-5.69679151116523
F-1.0286500762630024
F22.476097266973746
F-23.160316743000713
F-11.229594643894849
F15.925283459947401
F4.895342423553868
F-6.761820809226302
F8.389064430402136
F-3.157299277983323
F-17.413616772176418
F1.166055114170133
F-15.885145801267944
F-9.944654885376904
F24.994620341377967
F15.93228575165319
F-14.194038880578816
F10.024277724335128
F16.48752854907314
F-20.947825186966575
F-3.066171445647453
F-17.645811678971423
F-31.32840624416375
F28.742485704081364
F28.81829322705057
F14.65518901616468
F-2.1687513919069294
F-26.69051166889824
F9.46521934919805
F18.629868790833715
F-22.109860357928717
F3.158159592349979
F11.625930992989424
F8.66472568966896
F-23.860783776751745
F3.9981490635908297
F10.712032529761439
F-4.757223112326681
F5.942303746310207
F1.0792032666629072
F-8.424074740415247
F-14.133707020267686
F23.241939413266447
F-1.9551064344596454
F-5.723321122140834
F6.75058594913382
F0.8173196775869876
F-0.34197978928840267
F0.7357642059379548
F-0.1897492691309906
F-7.483131621184592
F0.011357229510566441
F0.011593552644804396
F-8.241212312197218
F32.921076509025966
F-16.16609843384602
F-32.82443285418117
F16.09011302546406
F-0.31965560164143736
F8.249797951201614
F0.009888258558561564
F8.52749297735805
F-16.803101943789244
F-9.13339079253687
F17.05826356544185
F26.01390485080087
F-15.423687569154644
F-28.330272653010457
F0.7691618682183141
F24.551923483480376
F12.287137185365705
F-28.805367753654906
F0.556658510495271
F-0.9789814556538121
F9.450563397315966
F-8.933569664470799
F7.761527014639435
F11.035684724724351
F-9.825881432703468
F0.010299488151619155
F0.010528537762421625
F9.181241308551819
F-7.681277956049284
F-11.804761630451232
F1.16764123749305
F7.345269867422891
F21.88561844728284
F-18.0782419645076
F-3.402375213384875
F3.5380807844918962
F-13.1907261172084
F20.653233604444257
F-7.127806484754207
F-13.809060633604547
F30.746899847749532
F-14.308193905885393
F-9.119552934555605
F9.635616968800173
F-9.73905663044022
F9.782755836573012
F-29.780680456097297
F34.20145031633322
F3.2286518195920526
F-2.572014929947276
F-16.607282777787404
F-9.353869619308984
F18.995088469114446
F-6.441964244570747
F26.98508445935977
F-19.56238685655352
F-17.37882826505476
F3.443657015963281
F6.15674767180411
F7.677138505088787
F-18.107255013344062
F13.995034569930677
F10.449826421768346
F-5.912556218114976
F-19.005667997968153
F25.005550356348824
F4.9264835703152
F-14.756511919960422
F-10.555364053193871
F-15.627895431650716
F41.49061927501416
F10.367828063948494
F-46.503570305572325
F47.4673311100789
F-31.561362540263254
F-27.490503283847296
F42.86423729145347
F-4.764441670870953
F-11.557833762667036
F12.237316522911401
F-12.620733290587445
F12.365393931740678
F-23.281163550501574
F16.99079657865218
F0.026897055533673758
F11.15211825468952
F-3.657516643325208
F-14.34423214673552
F14.709834796400564
F-26.159627375487773
F18.471791587572277
F11.38499946975439
F8.14875341402315
F-30.13239958036255
F-8.451135770486816
F7.766262317680163
F2.5639011029099743
F28.780069633618595
F-31.471559561310908
F-20.599609801611976
F33.93016518201611
F27.51185085370767
F-61.90213570702379
F22.27751145022948
F-5.073243971420649
F-50.25878208264933
F62.98838670862587
F-23.99281185488066
F27.134219919410942
F61.791192304647915
F-121.12760064148789
F21.21765821362494
F23.00264247203629
F33.97294073173943
F-10.43251089569521
F23.64451239386758
F-35.23264585057842
F-60.210949895457475
F59.4266096211689
F36.542373527320564
F-36.13950475013034
F25.703159550739553
F-75.47403509329328
F37.00521423026343
F11.84901028114156
F51.63993484504939
F-50.18042680571322
F-12.531275531404873
F23.412303186947458
F31.79149843752789
F-110.22814917605805
F94.25243671049762
F-26.630350560102002
F-25.209116128334486
F-6.428924650195377
F87.26714461692075
F-55.585134198094394
F25.483666127896992
F20.78651341728228
F-99.62583999663632
F7.0874776620017235
F88.54517194754432
F-37.23262728857851
F-52.75848746935204
F64.65241949325187
F-47.92635750326756
F30.134168097729304
F13.23138458064949
F31.9040470742934
F-50.63503017522425
F-64.5232218152716
F134.8459026570934
F-37.21082491605408
F27.198784278432363
F-112.38677568043704
F-8.031871675413143
F91.76120915220356
F44.001825108478016
F-81.08309781430889
F-35.5658512140175
F11.961647966124238
F34.68126453063215
F26.26139562061156
F7.891757748961568
F-143.35489640785195
F94.43220643096247
F-64.35881556636966
F-10.24418972664478
F134.26814893987006
F-99.14512961521343
F126.25587830780061
F-89.3526934262266
F-25.593020360046886
F51.939982980395094
F12.701134637594903
F-65.92065106315081
F25.74785333286791
F-14.314156646398297
F81.79815163750446
F-38.586025940199875
F-72.91032383034458
F142.85842737943983
F-111.35986310649922
F-33.09311919716488
F159.66652475693684
F-82.33286598486008
F-105.70425342301714
F87.21729782699124
F26.934735645313797
F24.816099638145197
F-175.3735257209005
F169.1397603498779
F-31.99240037754286
F6.655507174838373
F-101.52810285553355
F141.7237198627348
F-25.518046043612078
F-83.06391276726629
F34.224861681264095
F-36.881065315281354
F76.27514174341044
F75.11875336719159
F-127.24188800851871
F-48.71796907786371
F164.23986051872492
F-127.02426633848982
F90.98359397041139
F-65.78273453686286
F0.29590221094730623
F135.0793210624032
F-270.22064159724346
F202.7976377839164
F-67.95252080742983
F-43.096104435618834
F41.36053070531542
F-17.404252288446663
F133.35665132213268
F-159.58881845382777
F57.270267483621325
F-0.03874429226442316
F13.504474768818884
F34.15784833013987
F-94.51836747104926
F108.7681629675641
F-60.39823749542946
F13.565426284013808
F49.796081747317544
F-102.5006268724468
F-139.26910636399268
F253.63891832848208
F-38.64395699085934
F-169.03012569463937
F142.1935838565569
F53.629553283608416
F-78.55278919987322
F-28.540586940754824
F177.398479924116
F-134.0289961733169
F-0.023009711818000017
F13.303592221472485
F45.10849773099264
F-141.32969066850265
F35.85602891948789
F178.07110263846894
F-202.8678304850927
F45.60222928459082
F-84.26323086848545
F319.86651366418295
F-297.09988943898196
F23.566331538443883
F126.58176710754213
F-128.28139079791677
F142.5892027669882
F-89.91867528938847
F-67.53086047952445
F90.94478248974922
F69.04646056056252
F-67.3640403172639
F46.87525785899356
F-238.65327935200645
F116.60421410893412
F217.86295931958486
F-241.24619131742398
F96.02060634837157
F75.40644480096192
F-97.74583689204478
F-52.31777778792734
F231.0029095993338
F-267.4200937934349
F33.49554122068161
F236.90235262994037
F-259.87921940485353
F78.47862671202762
F-82.3636329012128
F103.2493830778088
F61.86530431986355
F-240.7281618149592
F358.96407008962535
F-200.77973547052562
F-75.88052544900476
F184.54546284766104
F-107.99156069199363
F-80.49865465794936
F202.21271206635404
F-28.831906506824364
F-288.50045844913683
F225.33382246690869
F169.40077193513292
F-400.2172232101109
F219.74284743351703
F97.74831492912087
F-105.86002114342485
F-9.975882790853698
F-101.79825012385449
F118.63884946593596
F113.2222732577416
F-15.181170716797943
F-217.43870500418228
F103.61111789677395
F-109.27960974224459
F115.11809581383343
F-0.05060931171256426
F18.321309468423465
F214.96073536100357
F-366.063205564717
F-104.20293716579904
F366.90947475661466
F-4.694880857837009
F-114.14750129631008
F102.7751343630184
F-365.32949709037274
F251.00446086844144
F7.484954946959617
F116.29825838969025
F-253.17817255903554
F143.11543741914306
F249.473475209153
F-393.03932572027423
F132.74306038926989
F6.693015886484672
F132.8750457936791
F-147.8652867864645
F-273.5759804786033
F283.2703355375002
F140.6050585626226
F-152.64933131921111
F-267.81569476264536
F711.0972557159993
F-583.8265377327614
F-0.17374880984507043
F151.39734510669558
F157.53322854412397
F148.37141476220555
F-455.8519588159035
F-161.82709487939476
F615.9731145727984
F-777.8318536004648
F628.5288586603557
F166.38460950688045
F-652.5175958484335
F-2.226453705450905
F826.7643758509837
F-493.9457267886114
F-0.023009711818000017
F-0.023009711818000017
F-0.023009711818000017
F-0.023009711818000017
F-0.023009711818000017
F-0.023009711818000017
F-0.023009711818000017
tp42
abaaF6.72
ab.